ccopy_reg
_reconstructor
p1
(cpsychopy.data
ExperimentHandler
p2
c__builtin__
object
p3
NtRp4
(dp5
S'originPath'
p6
V/Users/Ian/Desktop/SC IAT/experiment.psyexp
p7
sS'dataFileName'
p8
V/Users/Ian/Desktop/SC IAT/data/1_SCIAT IAT and likerts
p9
sS'runtimeInfo'
p10
NsS'name'
p11
S'SCIAT IAT and likerts'
p12
sS'dataNames'
p13
(lp14
S'requiredResponse.keys'
p15
aS'requiredResponse.corr'
p16
aS'requiredResponse.rt'
p17
aS'feedbackResponse.keys'
p18
aS'feedbackResponse.corr'
p19
aS'feedbackResponse.rt'
p20
asS'autoLog'
p21
I01
sS'extraInfo'
p22
(dp23
Vparticipant
p24
V1
sVgender
p25
V
sVage
p26
V
sS'frameRate'
p27
cnumpy.core.multiarray
scalar
p28
(cnumpy
dtype
p29
(S'f8'
I0
I1
tRp30
(I3
S'<'
NNNI-1
I-1
I0
tbS':\x1a,\x0cv\x1bN@'
tRp31
sS'expName'
p32
g12
sS'date'
p33
V2016_Mar_03_1652
p34
ssS'loopsUnfinished'
p35
(lp36
g1
(cpsychopy.data
TrialHandler
p37
g3
NtRp38
(dp39
S'origin'
p40
V<PsychoPy2experiment version="1.82.01" encoding="utf-8">\u000a  <Settings>\u000a    <Param name="Show mouse" val="False" valType="bool" updates="None"/>\u000a    <Param name="Data filename" val="'data/%s_%s' %(expInfo['participant'], expName)" valType="code" updates="None"/>\u000a    <Param name="Monitor" val="testMonitor" valType="str" updates="None"/>\u000a    <Param name="Enable Escape" val="True" valType="bool" updates="None"/>\u000a    <Param name="color" val="black" valType="str" updates="None"/>\u000a    <Param name="Window size (pixels)" val="[1366, 768]" valType="code" updates="None"/>\u000a    <Param name="Full-screen window" val="True" valType="bool" updates="None"/>\u000a    <Param name="colorSpace" val="rgb" valType="str" updates="None"/>\u000a    <Param name="Experiment info" val="{u'gender': u'', u'age': u'', u'participant': u''}" valType="code" updates="None"/>\u000a    <Param name="Save csv file" val="False" valType="bool" updates="None"/>\u000a    <Param name="Show info dlg" val="True" valType="bool" updates="None"/>\u000a    <Param name="Save wide csv file" val="True" valType="bool" updates="None"/>\u000a    <Param name="Save psydat file" val="True" valType="bool" updates="None"/>\u000a    <Param name="expName" val="SCIAT IAT and likerts" valType="str" updates="None"/>\u000a    <Param name="logging level" val="warning" valType="code" updates="None"/>\u000a    <Param name="blendMode" val="avg" valType="str" updates="None"/>\u000a    <Param name="Save excel file" val="False" valType="bool" updates="None"/>\u000a    <Param name="Units" val="use prefs" valType="str" updates="None"/>\u000a    <Param name="Save log file" val="False" valType="bool" updates="None"/>\u000a    <Param name="Screen" val="1" valType="num" updates="None"/>\u000a  </Settings>\u000a  <Routines>\u000a    <Routine name="trial">\u000a      <CodeComponent name="code">\u000a        <Param name="Begin Experiment" val="msg1=&quot;&quot;&#10;&#10;# dertermine the condition based on the modulo of the participant code &#10;# i.e., if the remained of the participant code divided by 4 = 1, run condition 1, etc.&#10;participant = int(expInfo['participant'])&#10;if (participant % 2) == 1: &#10;    taskFile = &quot;blocks_A.xlsx&quot;&#10;elif (participant % 2) == 0:&#10;    taskFile = &quot;blocks_B.xlsx&quot;&#10;else:&#10;    print &quot;****condition file error****&quot;" valType="extendedCode" updates="constant"/>\u000a        <Param name="name" val="code" valType="code" updates="None"/>\u000a        <Param name="Begin Routine" val="" valType="extendedCode" updates="constant"/>\u000a        <Param name="End Routine" val="" valType="extendedCode" updates="constant"/>\u000a        <Param name="End Experiment" val="" valType="extendedCode" updates="constant"/>\u000a        <Param name="Each Frame" val="if len(feedbackResponse.keys)&lt;1:&#10;    msg1=&quot;&quot;&#10;else:&#10;    msg1=&quot;X&quot;" valType="extendedCode" updates="constant"/>\u000a      </CodeComponent>\u000a      <ImageComponent name="stimulusImage">\u000a        <Param name="opacity" val="1" valType="code" updates="constant"/>\u000a        <Param name="flipVert" val="False" valType="bool" updates="constant"/>\u000a        <Param name="colorSpace" val="rgb" valType="str" updates="constant"/>\u000a        <Param name="name" val="stimulusImage" valType="code" updates="None"/>\u000a        <Param name="color" val="$[1,1,1]" valType="str" updates="constant"/>\u000a        <Param name="stopVal" val="" valType="code" updates="constant"/>\u000a        <Param name="durationEstim" val="" valType="code" updates="None"/>\u000a        <Param name="mask" val="None" valType="str" updates="constant"/>\u000a        <Param name="pos" val="[0, 0]" valType="code" updates="constant"/>\u000a        <Param name="interpolate" val="linear" valType="str" updates="constant"/>\u000a        <Param name="startEstim" val="" valType="code" updates="None"/>\u000a        <Param name="units" val="from exp settings" valType="str" updates="None"/>\u000a        <Param name="texture resolution" val="128" valType="code" updates="constant"/>\u000a        <Param name="startType" val="time (s)" valType="str" updates="None"/>\u000a        <Param name="ori" val="0" valType="code" updates="constant"/>\u000a        <Param name="stopType" val="duration (s)" valType="str" updates="None"/>\u000a        <Param name="startVal" val="0.3" valType="code" updates="None"/>\u000a        <Param name="flipHoriz" val="False" valType="bool" updates="constant"/>\u000a        <Param name="image" val="$imageStimulus" valType="str" updates="set every repeat"/>\u000a        <Param name="size" val=".4" valType="code" updates="constant"/>\u000a      </ImageComponent>\u000a      <TextComponent name="stimulusBox">\u000a        <Param name="opacity" val="1" valType="code" updates="constant"/>\u000a        <Param name="colorSpace" val="rgb" valType="str" updates="constant"/>\u000a        <Param name="name" val="stimulusBox" valType="code" updates="None"/>\u000a        <Param name="wrapWidth" val="" valType="code" updates="constant"/>\u000a        <Param name="color" val="$stimulusColour" valType="str" updates="set every repeat"/>\u000a        <Param name="text" val="$stimulus" valType="str" updates="set every repeat"/>\u000a        <Param name="stopVal" val="" valType="code" updates="constant"/>\u000a        <Param name="durationEstim" val="" valType="code" updates="None"/>\u000a        <Param name="pos" val="[0, 0]" valType="code" updates="constant"/>\u000a        <Param name="flip" val="" valType="str" updates="constant"/>\u000a        <Param name="startEstim" val="" valType="code" updates="None"/>\u000a        <Param name="units" val="from exp settings" valType="str" updates="None"/>\u000a        <Param name="startType" val="time (s)" valType="str" updates="None"/>\u000a        <Param name="ori" val="0" valType="code" updates="constant"/>\u000a        <Param name="stopType" val="duration (s)" valType="str" updates="None"/>\u000a        <Param name="startVal" val="0.3" valType="code" updates="None"/>\u000a        <Param name="font" val="Arial" valType="str" updates="constant"/>\u000a        <Param name="letterHeight" val="0.1" valType="code" updates="constant"/>\u000a      </TextComponent>\u000a      <KeyboardComponent name="requiredResponse">\u000a        <Param name="correctAns" val="$requiredKey" valType="str" updates="constant"/>\u000a        <Param name="storeCorrect" val="True" valType="bool" updates="constant"/>\u000a        <Param name="name" val="requiredResponse" valType="code" updates="None"/>\u000a        <Param name="stopVal" val="" valType="code" updates="constant"/>\u000a        <Param name="durationEstim" val="" valType="code" updates="None"/>\u000a        <Param name="forceEndRoutine" val="True" valType="bool" updates="constant"/>\u000a        <Param name="startEstim" val="" valType="code" updates="None"/>\u000a        <Param name="discard previous" val="True" valType="bool" updates="constant"/>\u000a        <Param name="startType" val="time (s)" valType="str" updates="None"/>\u000a        <Param name="allowedKeys" val="requiredAllowed" valType="code" updates="set every repeat"/>\u000a        <Param name="stopType" val="duration (s)" valType="str" updates="None"/>\u000a        <Param name="startVal" val="0.3" valType="code" updates="None"/>\u000a        <Param name="store" val="first key" valType="str" updates="constant"/>\u000a      </KeyboardComponent>\u000a      <KeyboardComponent name="feedbackResponse">\u000a        <Param name="correctAns" val="$feedbackKey" valType="str" updates="constant"/>\u000a        <Param name="storeCorrect" val="True" valType="bool" updates="constant"/>\u000a        <Param name="name" val="feedbackResponse" valType="code" updates="None"/>\u000a        <Param name="stopVal" val="" valType="code" updates="constant"/>\u000a        <Param name="durationEstim" val="" valType="code" updates="None"/>\u000a        <Param name="forceEndRoutine" val="False" valType="bool" updates="constant"/>\u000a        <Param name="startEstim" val="" valType="code" updates="None"/>\u000a        <Param name="discard previous" val="True" valType="bool" updates="constant"/>\u000a        <Param name="startType" val="time (s)" valType="str" updates="None"/>\u000a        <Param name="allowedKeys" val="feedbackAllowed" valType="code" updates="set every repeat"/>\u000a        <Param name="stopType" val="duration (s)" valType="str" updates="None"/>\u000a        <Param name="startVal" val="0.3" valType="code" updates="None"/>\u000a        <Param name="store" val="first key" valType="str" updates="constant"/>\u000a      </KeyboardComponent>\u000a      <TextComponent name="accuracyFeedback">\u000a        <Param name="opacity" val="1" valType="code" updates="constant"/>\u000a        <Param name="colorSpace" val="rgb" valType="str" updates="constant"/>\u000a        <Param name="name" val="accuracyFeedback" valType="code" updates="None"/>\u000a        <Param name="wrapWidth" val="" valType="code" updates="constant"/>\u000a        <Param name="color" val="red" valType="str" updates="constant"/>\u000a        <Param name="text" val="$msg1" valType="str" updates="set every frame"/>\u000a        <Param name="stopVal" val="" valType="code" updates="constant"/>\u000a        <Param name="durationEstim" val="" valType="code" updates="None"/>\u000a        <Param name="pos" val="[0, -.5]" valType="code" updates="constant"/>\u000a        <Param name="flip" val="" valType="str" updates="constant"/>\u000a        <Param name="startEstim" val="" valType="code" updates="None"/>\u000a        <Param name="units" val="from exp settings" valType="str" updates="None"/>\u000a        <Param name="startType" val="time (s)" valType="str" updates="None"/>\u000a        <Param name="ori" val="0" valType="code" updates="constant"/>\u000a        <Param name="stopType" val="duration (s)" valType="str" updates="None"/>\u000a        <Param name="startVal" val="0.3" valType="code" updates="None"/>\u000a        <Param name="font" val="Arial" valType="str" updates="constant"/>\u000a        <Param name="letterHeight" val="0.2" valType="code" updates="constant"/>\u000a      </TextComponent>\u000a      <TextComponent name="target1box">\u000a        <Param name="opacity" val="1" valType="code" updates="constant"/>\u000a        <Param name="colorSpace" val="rgb" valType="str" updates="constant"/>\u000a        <Param name="name" val="target1box" valType="code" updates="None"/>\u000a        <Param name="wrapWidth" val="" valType="code" updates="constant"/>\u000a        <Param name="color" val="$colourA" valType="str" updates="set every repeat"/>\u000a        <Param name="text" val="$target1" valType="str" updates="set every repeat"/>\u000a        <Param name="stopVal" val="" valType="code" updates="constant"/>\u000a        <Param name="durationEstim" val="" valType="code" updates="None"/>\u000a        <Param name="pos" val="[-.6, .85]" valType="code" updates="constant"/>\u000a        <Param name="flip" val="" valType="str" updates="constant"/>\u000a        <Param name="startEstim" val="" valType="code" updates="None"/>\u000a        <Param name="units" val="from exp settings" valType="str" updates="None"/>\u000a        <Param name="startType" val="time (s)" valType="str" updates="None"/>\u000a        <Param name="ori" val="0" valType="code" updates="constant"/>\u000a        <Param name="stopType" val="duration (s)" valType="str" updates="None"/>\u000a        <Param name="startVal" val="0.0" valType="code" updates="None"/>\u000a        <Param name="font" val="Arial" valType="str" updates="constant"/>\u000a        <Param name="letterHeight" val="0.1" valType="code" updates="constant"/>\u000a      </TextComponent>\u000a      <TextComponent name="target2box">\u000a        <Param name="opacity" val="1" valType="code" updates="constant"/>\u000a        <Param name="colorSpace" val="rgb" valType="str" updates="constant"/>\u000a        <Param name="name" val="target2box" valType="code" updates="None"/>\u000a        <Param name="wrapWidth" val="" valType="code" updates="constant"/>\u000a        <Param name="color" val="$colourA" valType="str" updates="set every repeat"/>\u000a        <Param name="text" val="$target2" valType="str" updates="set every repeat"/>\u000a        <Param name="stopVal" val="" valType="code" updates="constant"/>\u000a        <Param name="durationEstim" val="" valType="code" updates="None"/>\u000a        <Param name="pos" val="[0.6, 0.85]" valType="code" updates="constant"/>\u000a        <Param name="flip" val="" valType="str" updates="constant"/>\u000a        <Param name="startEstim" val="" valType="code" updates="None"/>\u000a        <Param name="units" val="from exp settings" valType="str" updates="None"/>\u000a        <Param name="startType" val="time (s)" valType="str" updates="None"/>\u000a        <Param name="ori" val="0" valType="code" updates="constant"/>\u000a        <Param name="stopType" val="duration (s)" valType="str" updates="None"/>\u000a        <Param name="startVal" val="0.0" valType="code" updates="None"/>\u000a        <Param name="font" val="Arial" valType="str" updates="constant"/>\u000a        <Param name="letterHeight" val="0.1" valType="code" updates="constant"/>\u000a      </TextComponent>\u000a      <TextComponent name="attribute1box">\u000a        <Param name="opacity" val="1" valType="code" updates="constant"/>\u000a        <Param name="colorSpace" val="rgb" valType="str" updates="constant"/>\u000a        <Param name="name" val="attribute1box" valType="code" updates="None"/>\u000a        <Param name="wrapWidth" val="" valType="code" updates="constant"/>\u000a        <Param name="color" val="$colourB" valType="str" updates="set every repeat"/>\u000a        <Param name="text" val="$attribute1&#10;" valType="str" updates="set every repeat"/>\u000a        <Param name="stopVal" val="" valType="code" updates="constant"/>\u000a        <Param name="durationEstim" val="" valType="code" updates="None"/>\u000a        <Param name="pos" val="[-.6, 0.55]" valType="code" updates="constant"/>\u000a        <Param name="flip" val="" valType="str" updates="constant"/>\u000a        <Param name="startEstim" val="" valType="code" updates="None"/>\u000a        <Param name="units" val="from exp settings" valType="str" updates="None"/>\u000a        <Param name="startType" val="time (s)" valType="str" updates="None"/>\u000a        <Param name="ori" val="0" valType="code" updates="constant"/>\u000a        <Param name="stopType" val="duration (s)" valType="str" updates="None"/>\u000a        <Param name="startVal" val="0.0" valType="code" updates="None"/>\u000a        <Param name="font" val="Arial" valType="str" updates="constant"/>\u000a        <Param name="letterHeight" val="0.1" valType="code" updates="constant"/>\u000a      </TextComponent>\u000a      <TextComponent name="attribute2box">\u000a        <Param name="opacity" val="1" valType="code" updates="constant"/>\u000a        <Param name="colorSpace" val="rgb" valType="str" updates="constant"/>\u000a        <Param name="name" val="attribute2box" valType="code" updates="None"/>\u000a        <Param name="wrapWidth" val="" valType="code" updates="constant"/>\u000a        <Param name="color" val="$colourB" valType="str" updates="set every repeat"/>\u000a        <Param name="text" val="$attribute2" valType="str" updates="set every repeat"/>\u000a        <Param name="stopVal" val="" valType="code" updates="constant"/>\u000a        <Param name="durationEstim" val="" valType="code" updates="None"/>\u000a        <Param name="pos" val="[0.6, 0.55]" valType="code" updates="constant"/>\u000a        <Param name="flip" val="" valType="str" updates="constant"/>\u000a        <Param name="startEstim" val="" valType="code" updates="None"/>\u000a        <Param name="units" val="from exp settings" valType="str" updates="None"/>\u000a        <Param name="startType" val="time (s)" valType="str" updates="None"/>\u000a        <Param name="ori" val="0" valType="code" updates="constant"/>\u000a        <Param name="stopType" val="duration (s)" valType="str" updates="None"/>\u000a        <Param name="startVal" val="0.0" valType="code" updates="None"/>\u000a        <Param name="font" val="Arial" valType="str" updates="constant"/>\u000a        <Param name="letterHeight" val="0.1" valType="code" updates="constant"/>\u000a      </TextComponent>\u000a      <TextComponent name="orLeftBox">\u000a        <Param name="opacity" val="1" valType="code" updates="constant"/>\u000a        <Param name="colorSpace" val="rgb" valType="str" updates="constant"/>\u000a        <Param name="name" val="orLeftBox" valType="code" updates="None"/>\u000a        <Param name="wrapWidth" val="" valType="code" updates="constant"/>\u000a        <Param name="color" val="$colourA" valType="str" updates="set every repeat"/>\u000a        <Param name="text" val="$orStimulusLeft" valType="str" updates="set every repeat"/>\u000a        <Param name="stopVal" val="" valType="code" updates="constant"/>\u000a        <Param name="durationEstim" val="" valType="code" updates="None"/>\u000a        <Param name="pos" val="[-.6, .7]" valType="code" updates="constant"/>\u000a        <Param name="flip" val="" valType="str" updates="constant"/>\u000a        <Param name="startEstim" val="" valType="code" updates="None"/>\u000a        <Param name="units" val="from exp settings" valType="str" updates="None"/>\u000a        <Param name="startType" val="time (s)" valType="str" updates="None"/>\u000a        <Param name="ori" val="0" valType="code" updates="constant"/>\u000a        <Param name="stopType" val="duration (s)" valType="str" updates="None"/>\u000a        <Param name="startVal" val="0.0" valType="code" updates="None"/>\u000a        <Param name="font" val="Arial" valType="str" updates="constant"/>\u000a        <Param name="letterHeight" val="0.1" valType="code" updates="constant"/>\u000a      </TextComponent>\u000a      <TextComponent name="orRightBox">\u000a        <Param name="opacity" val="1" valType="code" updates="constant"/>\u000a        <Param name="colorSpace" val="rgb" valType="str" updates="constant"/>\u000a        <Param name="name" val="orRightBox" valType="code" updates="None"/>\u000a        <Param name="wrapWidth" val="" valType="code" updates="constant"/>\u000a        <Param name="color" val="$colourA" valType="str" updates="set every repeat"/>\u000a        <Param name="text" val="$orStimulusRight" valType="str" updates="set every repeat"/>\u000a        <Param name="stopVal" val="" valType="code" updates="constant"/>\u000a        <Param name="durationEstim" val="" valType="code" updates="None"/>\u000a        <Param name="pos" val="[.6, .7]" valType="code" updates="constant"/>\u000a        <Param name="flip" val="" valType="str" updates="constant"/>\u000a        <Param name="startEstim" val="" valType="code" updates="None"/>\u000a        <Param name="units" val="from exp settings" valType="str" updates="None"/>\u000a        <Param name="startType" val="time (s)" valType="str" updates="None"/>\u000a        <Param name="ori" val="0" valType="code" updates="constant"/>\u000a        <Param name="stopType" val="duration (s)" valType="str" updates="None"/>\u000a        <Param name="startVal" val="0.0" valType="code" updates="None"/>\u000a        <Param name="font" val="Arial" valType="str" updates="constant"/>\u000a        <Param name="letterHeight" val="0.1" valType="code" updates="constant"/>\u000a      </TextComponent>\u000a    </Routine>\u000a    <Routine name="end">\u000a      <TextComponent name="text">\u000a        <Param name="opacity" val="1" valType="code" updates="constant"/>\u000a        <Param name="colorSpace" val="rgb" valType="str" updates="constant"/>\u000a        <Param name="name" val="text" valType="code" updates="None"/>\u000a        <Param name="wrapWidth" val="" valType="code" updates="constant"/>\u000a        <Param name="color" val="white" valType="str" updates="constant"/>\u000a        <Param name="text" val="End of experiment" valType="str" updates="constant"/>\u000a        <Param name="stopVal" val="2" valType="code" updates="constant"/>\u000a        <Param name="durationEstim" val="" valType="code" updates="None"/>\u000a        <Param name="pos" val="[0, 0]" valType="code" updates="constant"/>\u000a        <Param name="flip" val="" valType="str" updates="constant"/>\u000a        <Param name="startEstim" val="" valType="code" updates="None"/>\u000a        <Param name="units" val="from exp settings" valType="str" updates="None"/>\u000a        <Param name="startType" val="time (s)" valType="str" updates="None"/>\u000a        <Param name="ori" val="0" valType="code" updates="constant"/>\u000a        <Param name="stopType" val="duration (s)" valType="str" updates="None"/>\u000a        <Param name="startVal" val="1" valType="code" updates="None"/>\u000a        <Param name="font" val="Arial" valType="str" updates="constant"/>\u000a        <Param name="letterHeight" val="0.1" valType="code" updates="constant"/>\u000a      </TextComponent>\u000a    </Routine>\u000a    <Routine name="instructions">\u000a      <TextComponent name="instructionsBox">\u000a        <Param name="opacity" val="1" valType="code" updates="constant"/>\u000a        <Param name="colorSpace" val="rgb" valType="str" updates="constant"/>\u000a        <Param name="name" val="instructionsBox" valType="code" updates="None"/>\u000a        <Param name="wrapWidth" val="" valType="code" updates="constant"/>\u000a        <Param name="color" val="$colourA" valType="str" updates="set every repeat"/>\u000a        <Param name="text" val="$instruction" valType="str" updates="set every repeat"/>\u000a        <Param name="stopVal" val="" valType="code" updates="constant"/>\u000a        <Param name="durationEstim" val="" valType="code" updates="None"/>\u000a        <Param name="pos" val="[0, -.15]" valType="code" updates="constant"/>\u000a        <Param name="flip" val="" valType="str" updates="constant"/>\u000a        <Param name="startEstim" val="" valType="code" updates="None"/>\u000a        <Param name="units" val="from exp settings" valType="str" updates="None"/>\u000a        <Param name="startType" val="time (s)" valType="str" updates="None"/>\u000a        <Param name="ori" val="0" valType="code" updates="constant"/>\u000a        <Param name="stopType" val="duration (s)" valType="str" updates="None"/>\u000a        <Param name="startVal" val="1" valType="code" updates="None"/>\u000a        <Param name="font" val="Arial" valType="str" updates="constant"/>\u000a        <Param name="letterHeight" val="0.05" valType="code" updates="constant"/>\u000a      </TextComponent>\u000a      <KeyboardComponent name="responseContinue">\u000a        <Param name="correctAns" val="$requiredResponse" valType="str" updates="constant"/>\u000a        <Param name="storeCorrect" val="False" valType="bool" updates="constant"/>\u000a        <Param name="name" val="responseContinue" valType="code" updates="None"/>\u000a        <Param name="stopVal" val="" valType="code" updates="constant"/>\u000a        <Param name="durationEstim" val="" valType="code" updates="None"/>\u000a        <Param name="forceEndRoutine" val="True" valType="bool" updates="constant"/>\u000a        <Param name="startEstim" val="" valType="code" updates="None"/>\u000a        <Param name="discard previous" val="True" valType="bool" updates="constant"/>\u000a        <Param name="startType" val="time (s)" valType="str" updates="None"/>\u000a        <Param name="allowedKeys" val="'e', 'i'" valType="code" updates="constant"/>\u000a        <Param name="stopType" val="duration (s)" valType="str" updates="None"/>\u000a        <Param name="startVal" val="1.5" valType="code" updates="None"/>\u000a        <Param name="store" val="nothing" valType="str" updates="constant"/>\u000a      </KeyboardComponent>\u000a      <TextComponent name="target1box_inst">\u000a        <Param name="opacity" val="1" valType="code" updates="constant"/>\u000a        <Param name="colorSpace" val="rgb" valType="str" updates="constant"/>\u000a        <Param name="name" val="target1box_inst" valType="code" updates="None"/>\u000a        <Param name="wrapWidth" val="" valType="code" updates="constant"/>\u000a        <Param name="color" val="$colourA" valType="str" updates="set every repeat"/>\u000a        <Param name="text" val="$target1" valType="str" updates="set every repeat"/>\u000a        <Param name="stopVal" val="" valType="code" updates="constant"/>\u000a        <Param name="durationEstim" val="" valType="code" updates="None"/>\u000a        <Param name="pos" val="[-.6, .85]" valType="code" updates="constant"/>\u000a        <Param name="flip" val="" valType="str" updates="constant"/>\u000a        <Param name="startEstim" val="" valType="code" updates="None"/>\u000a        <Param name="units" val="from exp settings" valType="str" updates="None"/>\u000a        <Param name="startType" val="time (s)" valType="str" updates="None"/>\u000a        <Param name="ori" val="0" valType="code" updates="constant"/>\u000a        <Param name="stopType" val="duration (s)" valType="str" updates="None"/>\u000a        <Param name="startVal" val="1" valType="code" updates="None"/>\u000a        <Param name="font" val="Arial" valType="str" updates="constant"/>\u000a        <Param name="letterHeight" val="0.1" valType="code" updates="constant"/>\u000a      </TextComponent>\u000a      <TextComponent name="target2box_inst">\u000a        <Param name="opacity" val="1" valType="code" updates="constant"/>\u000a        <Param name="colorSpace" val="rgb" valType="str" updates="constant"/>\u000a        <Param name="name" val="target2box_inst" valType="code" updates="None"/>\u000a        <Param name="wrapWidth" val="" valType="code" updates="constant"/>\u000a        <Param name="color" val="$colourA" valType="str" updates="set every repeat"/>\u000a        <Param name="text" val="$target2" valType="str" updates="set every repeat"/>\u000a        <Param name="stopVal" val="" valType="code" updates="constant"/>\u000a        <Param name="durationEstim" val="" valType="code" updates="None"/>\u000a        <Param name="pos" val="[0.6, 0.85]" valType="code" updates="constant"/>\u000a        <Param name="flip" val="" valType="str" updates="constant"/>\u000a        <Param name="startEstim" val="" valType="code" updates="None"/>\u000a        <Param name="units" val="from exp settings" valType="str" updates="None"/>\u000a        <Param name="startType" val="time (s)" valType="str" updates="None"/>\u000a        <Param name="ori" val="0" valType="code" updates="constant"/>\u000a        <Param name="stopType" val="duration (s)" valType="str" updates="None"/>\u000a        <Param name="startVal" val="1" valType="code" updates="None"/>\u000a        <Param name="font" val="Arial" valType="str" updates="constant"/>\u000a        <Param name="letterHeight" val="0.1" valType="code" updates="constant"/>\u000a      </TextComponent>\u000a      <TextComponent name="attribute1box_inst">\u000a        <Param name="opacity" val="1" valType="code" updates="constant"/>\u000a        <Param name="colorSpace" val="rgb" valType="str" updates="constant"/>\u000a        <Param name="name" val="attribute1box_inst" valType="code" updates="None"/>\u000a        <Param name="wrapWidth" val="" valType="code" updates="constant"/>\u000a        <Param name="color" val="$colourB" valType="str" updates="set every repeat"/>\u000a        <Param name="text" val="$attribute1" valType="str" updates="set every repeat"/>\u000a        <Param name="stopVal" val="" valType="code" updates="constant"/>\u000a        <Param name="durationEstim" val="" valType="code" updates="None"/>\u000a        <Param name="pos" val="[-.6, 0.55]" valType="code" updates="constant"/>\u000a        <Param name="flip" val="" valType="str" updates="constant"/>\u000a        <Param name="startEstim" val="" valType="code" updates="None"/>\u000a        <Param name="units" val="from exp settings" valType="str" updates="None"/>\u000a        <Param name="startType" val="time (s)" valType="str" updates="None"/>\u000a        <Param name="ori" val="0" valType="code" updates="constant"/>\u000a        <Param name="stopType" val="duration (s)" valType="str" updates="None"/>\u000a        <Param name="startVal" val="1" valType="code" updates="None"/>\u000a        <Param name="font" val="Arial" valType="str" updates="constant"/>\u000a        <Param name="letterHeight" val="0.1" valType="code" updates="constant"/>\u000a      </TextComponent>\u000a      <TextComponent name="attribute2box_inst">\u000a        <Param name="opacity" val="1" valType="code" updates="constant"/>\u000a        <Param name="colorSpace" val="rgb" valType="str" updates="constant"/>\u000a        <Param name="name" val="attribute2box_inst" valType="code" updates="None"/>\u000a        <Param name="wrapWidth" val="" valType="code" updates="constant"/>\u000a        <Param name="color" val="$colourB" valType="str" updates="set every repeat"/>\u000a        <Param name="text" val="$attribute2" valType="str" updates="set every repeat"/>\u000a        <Param name="stopVal" val="" valType="code" updates="constant"/>\u000a        <Param name="durationEstim" val="" valType="code" updates="None"/>\u000a        <Param name="pos" val="[0.6, 0.55]" valType="code" updates="constant"/>\u000a        <Param name="flip" val="" valType="str" updates="constant"/>\u000a        <Param name="startEstim" val="" valType="code" updates="None"/>\u000a        <Param name="units" val="from exp settings" valType="str" updates="None"/>\u000a        <Param name="startType" val="time (s)" valType="str" updates="None"/>\u000a        <Param name="ori" val="0" valType="code" updates="constant"/>\u000a        <Param name="stopType" val="duration (s)" valType="str" updates="None"/>\u000a        <Param name="startVal" val="1" valType="code" updates="None"/>\u000a        <Param name="font" val="Arial" valType="str" updates="constant"/>\u000a        <Param name="letterHeight" val="0.1" valType="code" updates="constant"/>\u000a      </TextComponent>\u000a      <TextComponent name="orLeftBox_inst">\u000a        <Param name="opacity" val="1" valType="code" updates="constant"/>\u000a        <Param name="colorSpace" val="rgb" valType="str" updates="constant"/>\u000a        <Param name="name" val="orLeftBox_inst" valType="code" updates="None"/>\u000a        <Param name="wrapWidth" val="" valType="code" updates="constant"/>\u000a        <Param name="color" val="$colourA" valType="str" updates="set every repeat"/>\u000a        <Param name="text" val="$orStimulusLeft" valType="str" updates="set every repeat"/>\u000a        <Param name="stopVal" val="" valType="code" updates="constant"/>\u000a        <Param name="durationEstim" val="" valType="code" updates="None"/>\u000a        <Param name="pos" val="[-.6, .7]" valType="code" updates="constant"/>\u000a        <Param name="flip" val="" valType="str" updates="constant"/>\u000a        <Param name="startEstim" val="" valType="code" updates="None"/>\u000a        <Param name="units" val="from exp settings" valType="str" updates="None"/>\u000a        <Param name="startType" val="time (s)" valType="str" updates="None"/>\u000a        <Param name="ori" val="0" valType="code" updates="constant"/>\u000a        <Param name="stopType" val="duration (s)" valType="str" updates="None"/>\u000a        <Param name="startVal" val="1" valType="code" updates="None"/>\u000a        <Param name="font" val="Arial" valType="str" updates="constant"/>\u000a        <Param name="letterHeight" val="0.1" valType="code" updates="constant"/>\u000a      </TextComponent>\u000a      <TextComponent name="orRightBox_inst">\u000a        <Param name="opacity" val="1" valType="code" updates="constant"/>\u000a        <Param name="colorSpace" val="rgb" valType="str" updates="constant"/>\u000a        <Param name="name" val="orRightBox_inst" valType="code" updates="None"/>\u000a        <Param name="wrapWidth" val="" valType="code" updates="constant"/>\u000a        <Param name="color" val="$colourA" valType="str" updates="set every repeat"/>\u000a        <Param name="text" val="$orStimulusRight" valType="str" updates="set every repeat"/>\u000a        <Param name="stopVal" val="" valType="code" updates="constant"/>\u000a        <Param name="durationEstim" val="" valType="code" updates="None"/>\u000a        <Param name="pos" val="[.6, .7]" valType="code" updates="constant"/>\u000a        <Param name="flip" val="" valType="str" updates="constant"/>\u000a        <Param name="startEstim" val="" valType="code" updates="None"/>\u000a        <Param name="units" val="from exp settings" valType="str" updates="None"/>\u000a        <Param name="startType" val="time (s)" valType="str" updates="None"/>\u000a        <Param name="ori" val="0" valType="code" updates="constant"/>\u000a        <Param name="stopType" val="duration (s)" valType="str" updates="None"/>\u000a        <Param name="startVal" val="1" valType="code" updates="None"/>\u000a        <Param name="font" val="Arial" valType="str" updates="constant"/>\u000a        <Param name="letterHeight" val="0.1" valType="code" updates="constant"/>\u000a      </TextComponent>\u000a    </Routine>\u000a  </Routines>\u000a  <Flow>\u000a    <LoopInitiator loopType="TrialHandler" name="blocks">\u000a      <Param name="conditionsFile" val="$taskFile" valType="str" updates="None"/>\u000a      <Param name="name" val="blocks" valType="code" updates="None"/>\u000a      <Param name="isTrials" val="False" valType="bool" updates="None"/>\u000a      <Param name="random seed" val="" valType="code" updates="None"/>\u000a      <Param name="loopType" val="sequential" valType="str" updates="None"/>\u000a      <Param name="nReps" val="1" valType="code" updates="None"/>\u000a      <Param name="endPoints" val="[0, 1]" valType="num" updates="None"/>\u000a      <Param name="conditions" val="None" valType="str" updates="None"/>\u000a      <Param name="Selected rows" val="" valType="str" updates="None"/>\u000a    </LoopInitiator>\u000a    <Routine name="instructions"/>\u000a    <LoopInitiator loopType="TrialHandler" name="trials">\u000a      <Param name="conditionsFile" val="$block" valType="str" updates="None"/>\u000a      <Param name="name" val="trials" valType="code" updates="None"/>\u000a      <Param name="isTrials" val="True" valType="bool" updates="None"/>\u000a      <Param name="random seed" val="" valType="code" updates="None"/>\u000a      <Param name="loopType" val="random" valType="str" updates="None"/>\u000a      <Param name="nReps" val="$nBlockRepeats" valType="code" updates="None"/>\u000a      <Param name="endPoints" val="[0, 1]" valType="num" updates="None"/>\u000a      <Param name="conditions" val="None" valType="str" updates="None"/>\u000a      <Param name="Selected rows" val="" valType="str" updates="None"/>\u000a    </LoopInitiator>\u000a    <Routine name="trial"/>\u000a    <LoopTerminator name="trials"/>\u000a    <LoopTerminator name="blocks"/>\u000a    <Routine name="end"/>\u000a  </Flow>\u000a</PsychoPy2experiment>\u000a
p41
sS'thisTrial'
p42
g1
(cpsychopy.data
TrialType
p43
c__builtin__
dict
p44
(dp45
VcolourB
p46
Vmagenta
p47
sVcolourA
p48
Vwhite
p49
sVinstruction
p50
VThis is a phase FLOWERS, POSITIVE and NEGATIVE.\u000a\u000aTry to respond as quickly as possible without making too many mistakes.\u000a\u000aPress E or I to continue. 
p51
sVorStimulusLeft
p52
V 
sVorStimulusRight
p53
Vor
p54
sVcondition
p55
I1
sVnBlockRepeats
p56
I2
sVattribute2
p57
VPositive
p58
sVattribute1
p59
VNegative
p60
sVtarget2
p61
VFlowers
p62
sVblock
p63
Vtrials_A.xlsx
p64
sVtarget1
p65
V 
stRp66
sS'_exp'
p67
I206592848
sg11
S'blocks'
p68
sg6
g7
sS'thisRepN'
p69
I0
sg21
I01
sg22
g23
sS'data'
p70
g1
(cpsychopy.data
DataHandler
p71
g44
(dp72
S'ran'
p73
cnumpy.ma.core
_mareconstruct
p74
(cnumpy.ma.core
MaskedArray
p75
cnumpy
ndarray
p76
(I0
tp77
S'b'
tRp78
(I1
(I3
I1
tg29
(S'f4'
I0
I1
tRp79
(I3
S'<'
NNNI-1
I-1
I0
tbI00
S'\x00\x00\x80?\x00\x00\x80?\x00\x00\x00\x00'
S'\x00\x00\x00'
NtbsS'order'
p80
g74
(g75
g76
g77
S'b'
tRp81
(I1
(I3
I1
tg79
I00
S'\x00\x00\x00\x00\x00\x00\x80?\x00\x00\x00\x00'
S'\x00\x00\x01'
NtbstRp82
(dp83
S'isNumeric'
p84
(dp85
g73
I01
sg80
I01
ssS'trials'
p86
g38
sS'dataTypes'
p87
(lp88
g73
ag80
asS'dataShape'
p89
(lp90
I3
aI1
asbsS'method'
p91
S'sequential'
p92
sS'sequenceIndices'
p93
cnumpy.core.multiarray
_reconstruct
p94
(g76
(I0
tS'b'
tRp95
(I1
(I3
I1
tg29
(S'i4'
I0
I1
tRp96
(I3
S'<'
NNNI-1
I-1
I0
tbI00
S'\x00\x00\x00\x00\x01\x00\x00\x00\x02\x00\x00\x00'
tbsS'finished'
p97
I00
sS'nReps'
p98
I1
sS'nRemaining'
p99
I1
sS'trialList'
p100
(lp101
g1
(g43
g44
(dp102
g46
g47
sg48
g49
sg50
VIn this task stimuli will appear one by one on the screen. Your job is to categorize them using the left (E) or right (I) key. There are three possible categories:\u000a\u000a(1) POSITIVE\u000a(2) NEGATIVE\u000a(3) FLOWERS\u000a\u000aWhich categories are assigned to which button will differ from phase to phase. The categories assigned to the left button will appear in the upper left-hand corner of the screen. The categories assigned to the right button will appear in the upper right corner of the screen.\u000a\u000aTry to respond as quickly as possible, without making too many mistakes. When you make a mistake a red cross will appear. This cross will remain until you press the correct key.\u000a\u000aPress E or I to continue. 
p103
sg52
V 
sg53
V 
sg55
I1
sg56
I2
sg57
g58
sg59
g60
sg61
V 
sg63
Vtrials_attributes.xlsx
p104
sg65
V 
stRp105
ag66
ag1
(g43
g44
(dp106
g46
g47
sg48
g49
sg50
VThis is a phase FLOWERS, POSITIVE and NEGATIVE.\u000a\u000a** Be careful, the location of one of the categories has now reversed! **\u000a\u000aTry to respond as quickly as possible without making too many mistakes.\u000a\u000aPress E or I to continue. 
p107
sg52
g54
sg53
V 
sg55
I1
sg56
I2
sg57
g58
sg59
g60
sg61
V 
sg63
Vtrials_B.xlsx
p108
sg65
g62
stRp109
asS'seed'
p110
NsS'thisIndex'
p111
g28
(g96
S'\x01\x00\x00\x00'
tRp112
sS'thisN'
p113
I1
sS'thisTrialN'
p114
I1
sS'nTotal'
p115
I3
sS'_warnUseOfNext'
p116
I01
sbag1
(g37
g3
NtRp117
(dp118
g40
V<PsychoPy2experiment version="1.82.01" encoding="utf-8">\u000a  <Settings>\u000a    <Param name="Show mouse" val="False" valType="bool" updates="None"/>\u000a    <Param name="Data filename" val="'data/%s_%s' %(expInfo['participant'], expName)" valType="code" updates="None"/>\u000a    <Param name="Monitor" val="testMonitor" valType="str" updates="None"/>\u000a    <Param name="Enable Escape" val="True" valType="bool" updates="None"/>\u000a    <Param name="color" val="black" valType="str" updates="None"/>\u000a    <Param name="Window size (pixels)" val="[1366, 768]" valType="code" updates="None"/>\u000a    <Param name="Full-screen window" val="True" valType="bool" updates="None"/>\u000a    <Param name="colorSpace" val="rgb" valType="str" updates="None"/>\u000a    <Param name="Experiment info" val="{u'gender': u'', u'age': u'', u'participant': u''}" valType="code" updates="None"/>\u000a    <Param name="Save csv file" val="False" valType="bool" updates="None"/>\u000a    <Param name="Show info dlg" val="True" valType="bool" updates="None"/>\u000a    <Param name="Save wide csv file" val="True" valType="bool" updates="None"/>\u000a    <Param name="Save psydat file" val="True" valType="bool" updates="None"/>\u000a    <Param name="expName" val="SCIAT IAT and likerts" valType="str" updates="None"/>\u000a    <Param name="logging level" val="warning" valType="code" updates="None"/>\u000a    <Param name="blendMode" val="avg" valType="str" updates="None"/>\u000a    <Param name="Save excel file" val="False" valType="bool" updates="None"/>\u000a    <Param name="Units" val="use prefs" valType="str" updates="None"/>\u000a    <Param name="Save log file" val="False" valType="bool" updates="None"/>\u000a    <Param name="Screen" val="1" valType="num" updates="None"/>\u000a  </Settings>\u000a  <Routines>\u000a    <Routine name="trial">\u000a      <CodeComponent name="code">\u000a        <Param name="Begin Experiment" val="msg1=&quot;&quot;&#10;&#10;# dertermine the condition based on the modulo of the participant code &#10;# i.e., if the remained of the participant code divided by 4 = 1, run condition 1, etc.&#10;participant = int(expInfo['participant'])&#10;if (participant % 2) == 1: &#10;    taskFile = &quot;blocks_A.xlsx&quot;&#10;elif (participant % 2) == 0:&#10;    taskFile = &quot;blocks_B.xlsx&quot;&#10;else:&#10;    print &quot;****condition file error****&quot;" valType="extendedCode" updates="constant"/>\u000a        <Param name="name" val="code" valType="code" updates="None"/>\u000a        <Param name="Begin Routine" val="" valType="extendedCode" updates="constant"/>\u000a        <Param name="End Routine" val="" valType="extendedCode" updates="constant"/>\u000a        <Param name="End Experiment" val="" valType="extendedCode" updates="constant"/>\u000a        <Param name="Each Frame" val="if len(feedbackResponse.keys)&lt;1:&#10;    msg1=&quot;&quot;&#10;else:&#10;    msg1=&quot;X&quot;" valType="extendedCode" updates="constant"/>\u000a      </CodeComponent>\u000a      <ImageComponent name="stimulusImage">\u000a        <Param name="opacity" val="1" valType="code" updates="constant"/>\u000a        <Param name="flipVert" val="False" valType="bool" updates="constant"/>\u000a        <Param name="colorSpace" val="rgb" valType="str" updates="constant"/>\u000a        <Param name="name" val="stimulusImage" valType="code" updates="None"/>\u000a        <Param name="color" val="$[1,1,1]" valType="str" updates="constant"/>\u000a        <Param name="stopVal" val="" valType="code" updates="constant"/>\u000a        <Param name="durationEstim" val="" valType="code" updates="None"/>\u000a        <Param name="mask" val="None" valType="str" updates="constant"/>\u000a        <Param name="pos" val="[0, 0]" valType="code" updates="constant"/>\u000a        <Param name="interpolate" val="linear" valType="str" updates="constant"/>\u000a        <Param name="startEstim" val="" valType="code" updates="None"/>\u000a        <Param name="units" val="from exp settings" valType="str" updates="None"/>\u000a        <Param name="texture resolution" val="128" valType="code" updates="constant"/>\u000a        <Param name="startType" val="time (s)" valType="str" updates="None"/>\u000a        <Param name="ori" val="0" valType="code" updates="constant"/>\u000a        <Param name="stopType" val="duration (s)" valType="str" updates="None"/>\u000a        <Param name="startVal" val="0.3" valType="code" updates="None"/>\u000a        <Param name="flipHoriz" val="False" valType="bool" updates="constant"/>\u000a        <Param name="image" val="$imageStimulus" valType="str" updates="set every repeat"/>\u000a        <Param name="size" val=".4" valType="code" updates="constant"/>\u000a      </ImageComponent>\u000a      <TextComponent name="stimulusBox">\u000a        <Param name="opacity" val="1" valType="code" updates="constant"/>\u000a        <Param name="colorSpace" val="rgb" valType="str" updates="constant"/>\u000a        <Param name="name" val="stimulusBox" valType="code" updates="None"/>\u000a        <Param name="wrapWidth" val="" valType="code" updates="constant"/>\u000a        <Param name="color" val="$stimulusColour" valType="str" updates="set every repeat"/>\u000a        <Param name="text" val="$stimulus" valType="str" updates="set every repeat"/>\u000a        <Param name="stopVal" val="" valType="code" updates="constant"/>\u000a        <Param name="durationEstim" val="" valType="code" updates="None"/>\u000a        <Param name="pos" val="[0, 0]" valType="code" updates="constant"/>\u000a        <Param name="flip" val="" valType="str" updates="constant"/>\u000a        <Param name="startEstim" val="" valType="code" updates="None"/>\u000a        <Param name="units" val="from exp settings" valType="str" updates="None"/>\u000a        <Param name="startType" val="time (s)" valType="str" updates="None"/>\u000a        <Param name="ori" val="0" valType="code" updates="constant"/>\u000a        <Param name="stopType" val="duration (s)" valType="str" updates="None"/>\u000a        <Param name="startVal" val="0.3" valType="code" updates="None"/>\u000a        <Param name="font" val="Arial" valType="str" updates="constant"/>\u000a        <Param name="letterHeight" val="0.1" valType="code" updates="constant"/>\u000a      </TextComponent>\u000a      <KeyboardComponent name="requiredResponse">\u000a        <Param name="correctAns" val="$requiredKey" valType="str" updates="constant"/>\u000a        <Param name="storeCorrect" val="True" valType="bool" updates="constant"/>\u000a        <Param name="name" val="requiredResponse" valType="code" updates="None"/>\u000a        <Param name="stopVal" val="" valType="code" updates="constant"/>\u000a        <Param name="durationEstim" val="" valType="code" updates="None"/>\u000a        <Param name="forceEndRoutine" val="True" valType="bool" updates="constant"/>\u000a        <Param name="startEstim" val="" valType="code" updates="None"/>\u000a        <Param name="discard previous" val="True" valType="bool" updates="constant"/>\u000a        <Param name="startType" val="time (s)" valType="str" updates="None"/>\u000a        <Param name="allowedKeys" val="requiredAllowed" valType="code" updates="set every repeat"/>\u000a        <Param name="stopType" val="duration (s)" valType="str" updates="None"/>\u000a        <Param name="startVal" val="0.3" valType="code" updates="None"/>\u000a        <Param name="store" val="first key" valType="str" updates="constant"/>\u000a      </KeyboardComponent>\u000a      <KeyboardComponent name="feedbackResponse">\u000a        <Param name="correctAns" val="$feedbackKey" valType="str" updates="constant"/>\u000a        <Param name="storeCorrect" val="True" valType="bool" updates="constant"/>\u000a        <Param name="name" val="feedbackResponse" valType="code" updates="None"/>\u000a        <Param name="stopVal" val="" valType="code" updates="constant"/>\u000a        <Param name="durationEstim" val="" valType="code" updates="None"/>\u000a        <Param name="forceEndRoutine" val="False" valType="bool" updates="constant"/>\u000a        <Param name="startEstim" val="" valType="code" updates="None"/>\u000a        <Param name="discard previous" val="True" valType="bool" updates="constant"/>\u000a        <Param name="startType" val="time (s)" valType="str" updates="None"/>\u000a        <Param name="allowedKeys" val="feedbackAllowed" valType="code" updates="set every repeat"/>\u000a        <Param name="stopType" val="duration (s)" valType="str" updates="None"/>\u000a        <Param name="startVal" val="0.3" valType="code" updates="None"/>\u000a        <Param name="store" val="first key" valType="str" updates="constant"/>\u000a      </KeyboardComponent>\u000a      <TextComponent name="accuracyFeedback">\u000a        <Param name="opacity" val="1" valType="code" updates="constant"/>\u000a        <Param name="colorSpace" val="rgb" valType="str" updates="constant"/>\u000a        <Param name="name" val="accuracyFeedback" valType="code" updates="None"/>\u000a        <Param name="wrapWidth" val="" valType="code" updates="constant"/>\u000a        <Param name="color" val="red" valType="str" updates="constant"/>\u000a        <Param name="text" val="$msg1" valType="str" updates="set every frame"/>\u000a        <Param name="stopVal" val="" valType="code" updates="constant"/>\u000a        <Param name="durationEstim" val="" valType="code" updates="None"/>\u000a        <Param name="pos" val="[0, -.5]" valType="code" updates="constant"/>\u000a        <Param name="flip" val="" valType="str" updates="constant"/>\u000a        <Param name="startEstim" val="" valType="code" updates="None"/>\u000a        <Param name="units" val="from exp settings" valType="str" updates="None"/>\u000a        <Param name="startType" val="time (s)" valType="str" updates="None"/>\u000a        <Param name="ori" val="0" valType="code" updates="constant"/>\u000a        <Param name="stopType" val="duration (s)" valType="str" updates="None"/>\u000a        <Param name="startVal" val="0.3" valType="code" updates="None"/>\u000a        <Param name="font" val="Arial" valType="str" updates="constant"/>\u000a        <Param name="letterHeight" val="0.2" valType="code" updates="constant"/>\u000a      </TextComponent>\u000a      <TextComponent name="target1box">\u000a        <Param name="opacity" val="1" valType="code" updates="constant"/>\u000a        <Param name="colorSpace" val="rgb" valType="str" updates="constant"/>\u000a        <Param name="name" val="target1box" valType="code" updates="None"/>\u000a        <Param name="wrapWidth" val="" valType="code" updates="constant"/>\u000a        <Param name="color" val="$colourA" valType="str" updates="set every repeat"/>\u000a        <Param name="text" val="$target1" valType="str" updates="set every repeat"/>\u000a        <Param name="stopVal" val="" valType="code" updates="constant"/>\u000a        <Param name="durationEstim" val="" valType="code" updates="None"/>\u000a        <Param name="pos" val="[-.6, .85]" valType="code" updates="constant"/>\u000a        <Param name="flip" val="" valType="str" updates="constant"/>\u000a        <Param name="startEstim" val="" valType="code" updates="None"/>\u000a        <Param name="units" val="from exp settings" valType="str" updates="None"/>\u000a        <Param name="startType" val="time (s)" valType="str" updates="None"/>\u000a        <Param name="ori" val="0" valType="code" updates="constant"/>\u000a        <Param name="stopType" val="duration (s)" valType="str" updates="None"/>\u000a        <Param name="startVal" val="0.0" valType="code" updates="None"/>\u000a        <Param name="font" val="Arial" valType="str" updates="constant"/>\u000a        <Param name="letterHeight" val="0.1" valType="code" updates="constant"/>\u000a      </TextComponent>\u000a      <TextComponent name="target2box">\u000a        <Param name="opacity" val="1" valType="code" updates="constant"/>\u000a        <Param name="colorSpace" val="rgb" valType="str" updates="constant"/>\u000a        <Param name="name" val="target2box" valType="code" updates="None"/>\u000a        <Param name="wrapWidth" val="" valType="code" updates="constant"/>\u000a        <Param name="color" val="$colourA" valType="str" updates="set every repeat"/>\u000a        <Param name="text" val="$target2" valType="str" updates="set every repeat"/>\u000a        <Param name="stopVal" val="" valType="code" updates="constant"/>\u000a        <Param name="durationEstim" val="" valType="code" updates="None"/>\u000a        <Param name="pos" val="[0.6, 0.85]" valType="code" updates="constant"/>\u000a        <Param name="flip" val="" valType="str" updates="constant"/>\u000a        <Param name="startEstim" val="" valType="code" updates="None"/>\u000a        <Param name="units" val="from exp settings" valType="str" updates="None"/>\u000a        <Param name="startType" val="time (s)" valType="str" updates="None"/>\u000a        <Param name="ori" val="0" valType="code" updates="constant"/>\u000a        <Param name="stopType" val="duration (s)" valType="str" updates="None"/>\u000a        <Param name="startVal" val="0.0" valType="code" updates="None"/>\u000a        <Param name="font" val="Arial" valType="str" updates="constant"/>\u000a        <Param name="letterHeight" val="0.1" valType="code" updates="constant"/>\u000a      </TextComponent>\u000a      <TextComponent name="attribute1box">\u000a        <Param name="opacity" val="1" valType="code" updates="constant"/>\u000a        <Param name="colorSpace" val="rgb" valType="str" updates="constant"/>\u000a        <Param name="name" val="attribute1box" valType="code" updates="None"/>\u000a        <Param name="wrapWidth" val="" valType="code" updates="constant"/>\u000a        <Param name="color" val="$colourB" valType="str" updates="set every repeat"/>\u000a        <Param name="text" val="$attribute1&#10;" valType="str" updates="set every repeat"/>\u000a        <Param name="stopVal" val="" valType="code" updates="constant"/>\u000a        <Param name="durationEstim" val="" valType="code" updates="None"/>\u000a        <Param name="pos" val="[-.6, 0.55]" valType="code" updates="constant"/>\u000a        <Param name="flip" val="" valType="str" updates="constant"/>\u000a        <Param name="startEstim" val="" valType="code" updates="None"/>\u000a        <Param name="units" val="from exp settings" valType="str" updates="None"/>\u000a        <Param name="startType" val="time (s)" valType="str" updates="None"/>\u000a        <Param name="ori" val="0" valType="code" updates="constant"/>\u000a        <Param name="stopType" val="duration (s)" valType="str" updates="None"/>\u000a        <Param name="startVal" val="0.0" valType="code" updates="None"/>\u000a        <Param name="font" val="Arial" valType="str" updates="constant"/>\u000a        <Param name="letterHeight" val="0.1" valType="code" updates="constant"/>\u000a      </TextComponent>\u000a      <TextComponent name="attribute2box">\u000a        <Param name="opacity" val="1" valType="code" updates="constant"/>\u000a        <Param name="colorSpace" val="rgb" valType="str" updates="constant"/>\u000a        <Param name="name" val="attribute2box" valType="code" updates="None"/>\u000a        <Param name="wrapWidth" val="" valType="code" updates="constant"/>\u000a        <Param name="color" val="$colourB" valType="str" updates="set every repeat"/>\u000a        <Param name="text" val="$attribute2" valType="str" updates="set every repeat"/>\u000a        <Param name="stopVal" val="" valType="code" updates="constant"/>\u000a        <Param name="durationEstim" val="" valType="code" updates="None"/>\u000a        <Param name="pos" val="[0.6, 0.55]" valType="code" updates="constant"/>\u000a        <Param name="flip" val="" valType="str" updates="constant"/>\u000a        <Param name="startEstim" val="" valType="code" updates="None"/>\u000a        <Param name="units" val="from exp settings" valType="str" updates="None"/>\u000a        <Param name="startType" val="time (s)" valType="str" updates="None"/>\u000a        <Param name="ori" val="0" valType="code" updates="constant"/>\u000a        <Param name="stopType" val="duration (s)" valType="str" updates="None"/>\u000a        <Param name="startVal" val="0.0" valType="code" updates="None"/>\u000a        <Param name="font" val="Arial" valType="str" updates="constant"/>\u000a        <Param name="letterHeight" val="0.1" valType="code" updates="constant"/>\u000a      </TextComponent>\u000a      <TextComponent name="orLeftBox">\u000a        <Param name="opacity" val="1" valType="code" updates="constant"/>\u000a        <Param name="colorSpace" val="rgb" valType="str" updates="constant"/>\u000a        <Param name="name" val="orLeftBox" valType="code" updates="None"/>\u000a        <Param name="wrapWidth" val="" valType="code" updates="constant"/>\u000a        <Param name="color" val="$colourA" valType="str" updates="set every repeat"/>\u000a        <Param name="text" val="$orStimulusLeft" valType="str" updates="set every repeat"/>\u000a        <Param name="stopVal" val="" valType="code" updates="constant"/>\u000a        <Param name="durationEstim" val="" valType="code" updates="None"/>\u000a        <Param name="pos" val="[-.6, .7]" valType="code" updates="constant"/>\u000a        <Param name="flip" val="" valType="str" updates="constant"/>\u000a        <Param name="startEstim" val="" valType="code" updates="None"/>\u000a        <Param name="units" val="from exp settings" valType="str" updates="None"/>\u000a        <Param name="startType" val="time (s)" valType="str" updates="None"/>\u000a        <Param name="ori" val="0" valType="code" updates="constant"/>\u000a        <Param name="stopType" val="duration (s)" valType="str" updates="None"/>\u000a        <Param name="startVal" val="0.0" valType="code" updates="None"/>\u000a        <Param name="font" val="Arial" valType="str" updates="constant"/>\u000a        <Param name="letterHeight" val="0.1" valType="code" updates="constant"/>\u000a      </TextComponent>\u000a      <TextComponent name="orRightBox">\u000a        <Param name="opacity" val="1" valType="code" updates="constant"/>\u000a        <Param name="colorSpace" val="rgb" valType="str" updates="constant"/>\u000a        <Param name="name" val="orRightBox" valType="code" updates="None"/>\u000a        <Param name="wrapWidth" val="" valType="code" updates="constant"/>\u000a        <Param name="color" val="$colourA" valType="str" updates="set every repeat"/>\u000a        <Param name="text" val="$orStimulusRight" valType="str" updates="set every repeat"/>\u000a        <Param name="stopVal" val="" valType="code" updates="constant"/>\u000a        <Param name="durationEstim" val="" valType="code" updates="None"/>\u000a        <Param name="pos" val="[.6, .7]" valType="code" updates="constant"/>\u000a        <Param name="flip" val="" valType="str" updates="constant"/>\u000a        <Param name="startEstim" val="" valType="code" updates="None"/>\u000a        <Param name="units" val="from exp settings" valType="str" updates="None"/>\u000a        <Param name="startType" val="time (s)" valType="str" updates="None"/>\u000a        <Param name="ori" val="0" valType="code" updates="constant"/>\u000a        <Param name="stopType" val="duration (s)" valType="str" updates="None"/>\u000a        <Param name="startVal" val="0.0" valType="code" updates="None"/>\u000a        <Param name="font" val="Arial" valType="str" updates="constant"/>\u000a        <Param name="letterHeight" val="0.1" valType="code" updates="constant"/>\u000a      </TextComponent>\u000a    </Routine>\u000a    <Routine name="end">\u000a      <TextComponent name="text">\u000a        <Param name="opacity" val="1" valType="code" updates="constant"/>\u000a        <Param name="colorSpace" val="rgb" valType="str" updates="constant"/>\u000a        <Param name="name" val="text" valType="code" updates="None"/>\u000a        <Param name="wrapWidth" val="" valType="code" updates="constant"/>\u000a        <Param name="color" val="white" valType="str" updates="constant"/>\u000a        <Param name="text" val="End of experiment" valType="str" updates="constant"/>\u000a        <Param name="stopVal" val="2" valType="code" updates="constant"/>\u000a        <Param name="durationEstim" val="" valType="code" updates="None"/>\u000a        <Param name="pos" val="[0, 0]" valType="code" updates="constant"/>\u000a        <Param name="flip" val="" valType="str" updates="constant"/>\u000a        <Param name="startEstim" val="" valType="code" updates="None"/>\u000a        <Param name="units" val="from exp settings" valType="str" updates="None"/>\u000a        <Param name="startType" val="time (s)" valType="str" updates="None"/>\u000a        <Param name="ori" val="0" valType="code" updates="constant"/>\u000a        <Param name="stopType" val="duration (s)" valType="str" updates="None"/>\u000a        <Param name="startVal" val="1" valType="code" updates="None"/>\u000a        <Param name="font" val="Arial" valType="str" updates="constant"/>\u000a        <Param name="letterHeight" val="0.1" valType="code" updates="constant"/>\u000a      </TextComponent>\u000a    </Routine>\u000a    <Routine name="instructions">\u000a      <TextComponent name="instructionsBox">\u000a        <Param name="opacity" val="1" valType="code" updates="constant"/>\u000a        <Param name="colorSpace" val="rgb" valType="str" updates="constant"/>\u000a        <Param name="name" val="instructionsBox" valType="code" updates="None"/>\u000a        <Param name="wrapWidth" val="" valType="code" updates="constant"/>\u000a        <Param name="color" val="$colourA" valType="str" updates="set every repeat"/>\u000a        <Param name="text" val="$instruction" valType="str" updates="set every repeat"/>\u000a        <Param name="stopVal" val="" valType="code" updates="constant"/>\u000a        <Param name="durationEstim" val="" valType="code" updates="None"/>\u000a        <Param name="pos" val="[0, -.15]" valType="code" updates="constant"/>\u000a        <Param name="flip" val="" valType="str" updates="constant"/>\u000a        <Param name="startEstim" val="" valType="code" updates="None"/>\u000a        <Param name="units" val="from exp settings" valType="str" updates="None"/>\u000a        <Param name="startType" val="time (s)" valType="str" updates="None"/>\u000a        <Param name="ori" val="0" valType="code" updates="constant"/>\u000a        <Param name="stopType" val="duration (s)" valType="str" updates="None"/>\u000a        <Param name="startVal" val="1" valType="code" updates="None"/>\u000a        <Param name="font" val="Arial" valType="str" updates="constant"/>\u000a        <Param name="letterHeight" val="0.05" valType="code" updates="constant"/>\u000a      </TextComponent>\u000a      <KeyboardComponent name="responseContinue">\u000a        <Param name="correctAns" val="$requiredResponse" valType="str" updates="constant"/>\u000a        <Param name="storeCorrect" val="False" valType="bool" updates="constant"/>\u000a        <Param name="name" val="responseContinue" valType="code" updates="None"/>\u000a        <Param name="stopVal" val="" valType="code" updates="constant"/>\u000a        <Param name="durationEstim" val="" valType="code" updates="None"/>\u000a        <Param name="forceEndRoutine" val="True" valType="bool" updates="constant"/>\u000a        <Param name="startEstim" val="" valType="code" updates="None"/>\u000a        <Param name="discard previous" val="True" valType="bool" updates="constant"/>\u000a        <Param name="startType" val="time (s)" valType="str" updates="None"/>\u000a        <Param name="allowedKeys" val="'e', 'i'" valType="code" updates="constant"/>\u000a        <Param name="stopType" val="duration (s)" valType="str" updates="None"/>\u000a        <Param name="startVal" val="1.5" valType="code" updates="None"/>\u000a        <Param name="store" val="nothing" valType="str" updates="constant"/>\u000a      </KeyboardComponent>\u000a      <TextComponent name="target1box_inst">\u000a        <Param name="opacity" val="1" valType="code" updates="constant"/>\u000a        <Param name="colorSpace" val="rgb" valType="str" updates="constant"/>\u000a        <Param name="name" val="target1box_inst" valType="code" updates="None"/>\u000a        <Param name="wrapWidth" val="" valType="code" updates="constant"/>\u000a        <Param name="color" val="$colourA" valType="str" updates="set every repeat"/>\u000a        <Param name="text" val="$target1" valType="str" updates="set every repeat"/>\u000a        <Param name="stopVal" val="" valType="code" updates="constant"/>\u000a        <Param name="durationEstim" val="" valType="code" updates="None"/>\u000a        <Param name="pos" val="[-.6, .85]" valType="code" updates="constant"/>\u000a        <Param name="flip" val="" valType="str" updates="constant"/>\u000a        <Param name="startEstim" val="" valType="code" updates="None"/>\u000a        <Param name="units" val="from exp settings" valType="str" updates="None"/>\u000a        <Param name="startType" val="time (s)" valType="str" updates="None"/>\u000a        <Param name="ori" val="0" valType="code" updates="constant"/>\u000a        <Param name="stopType" val="duration (s)" valType="str" updates="None"/>\u000a        <Param name="startVal" val="1" valType="code" updates="None"/>\u000a        <Param name="font" val="Arial" valType="str" updates="constant"/>\u000a        <Param name="letterHeight" val="0.1" valType="code" updates="constant"/>\u000a      </TextComponent>\u000a      <TextComponent name="target2box_inst">\u000a        <Param name="opacity" val="1" valType="code" updates="constant"/>\u000a        <Param name="colorSpace" val="rgb" valType="str" updates="constant"/>\u000a        <Param name="name" val="target2box_inst" valType="code" updates="None"/>\u000a        <Param name="wrapWidth" val="" valType="code" updates="constant"/>\u000a        <Param name="color" val="$colourA" valType="str" updates="set every repeat"/>\u000a        <Param name="text" val="$target2" valType="str" updates="set every repeat"/>\u000a        <Param name="stopVal" val="" valType="code" updates="constant"/>\u000a        <Param name="durationEstim" val="" valType="code" updates="None"/>\u000a        <Param name="pos" val="[0.6, 0.85]" valType="code" updates="constant"/>\u000a        <Param name="flip" val="" valType="str" updates="constant"/>\u000a        <Param name="startEstim" val="" valType="code" updates="None"/>\u000a        <Param name="units" val="from exp settings" valType="str" updates="None"/>\u000a        <Param name="startType" val="time (s)" valType="str" updates="None"/>\u000a        <Param name="ori" val="0" valType="code" updates="constant"/>\u000a        <Param name="stopType" val="duration (s)" valType="str" updates="None"/>\u000a        <Param name="startVal" val="1" valType="code" updates="None"/>\u000a        <Param name="font" val="Arial" valType="str" updates="constant"/>\u000a        <Param name="letterHeight" val="0.1" valType="code" updates="constant"/>\u000a      </TextComponent>\u000a      <TextComponent name="attribute1box_inst">\u000a        <Param name="opacity" val="1" valType="code" updates="constant"/>\u000a        <Param name="colorSpace" val="rgb" valType="str" updates="constant"/>\u000a        <Param name="name" val="attribute1box_inst" valType="code" updates="None"/>\u000a        <Param name="wrapWidth" val="" valType="code" updates="constant"/>\u000a        <Param name="color" val="$colourB" valType="str" updates="set every repeat"/>\u000a        <Param name="text" val="$attribute1" valType="str" updates="set every repeat"/>\u000a        <Param name="stopVal" val="" valType="code" updates="constant"/>\u000a        <Param name="durationEstim" val="" valType="code" updates="None"/>\u000a        <Param name="pos" val="[-.6, 0.55]" valType="code" updates="constant"/>\u000a        <Param name="flip" val="" valType="str" updates="constant"/>\u000a        <Param name="startEstim" val="" valType="code" updates="None"/>\u000a        <Param name="units" val="from exp settings" valType="str" updates="None"/>\u000a        <Param name="startType" val="time (s)" valType="str" updates="None"/>\u000a        <Param name="ori" val="0" valType="code" updates="constant"/>\u000a        <Param name="stopType" val="duration (s)" valType="str" updates="None"/>\u000a        <Param name="startVal" val="1" valType="code" updates="None"/>\u000a        <Param name="font" val="Arial" valType="str" updates="constant"/>\u000a        <Param name="letterHeight" val="0.1" valType="code" updates="constant"/>\u000a      </TextComponent>\u000a      <TextComponent name="attribute2box_inst">\u000a        <Param name="opacity" val="1" valType="code" updates="constant"/>\u000a        <Param name="colorSpace" val="rgb" valType="str" updates="constant"/>\u000a        <Param name="name" val="attribute2box_inst" valType="code" updates="None"/>\u000a        <Param name="wrapWidth" val="" valType="code" updates="constant"/>\u000a        <Param name="color" val="$colourB" valType="str" updates="set every repeat"/>\u000a        <Param name="text" val="$attribute2" valType="str" updates="set every repeat"/>\u000a        <Param name="stopVal" val="" valType="code" updates="constant"/>\u000a        <Param name="durationEstim" val="" valType="code" updates="None"/>\u000a        <Param name="pos" val="[0.6, 0.55]" valType="code" updates="constant"/>\u000a        <Param name="flip" val="" valType="str" updates="constant"/>\u000a        <Param name="startEstim" val="" valType="code" updates="None"/>\u000a        <Param name="units" val="from exp settings" valType="str" updates="None"/>\u000a        <Param name="startType" val="time (s)" valType="str" updates="None"/>\u000a        <Param name="ori" val="0" valType="code" updates="constant"/>\u000a        <Param name="stopType" val="duration (s)" valType="str" updates="None"/>\u000a        <Param name="startVal" val="1" valType="code" updates="None"/>\u000a        <Param name="font" val="Arial" valType="str" updates="constant"/>\u000a        <Param name="letterHeight" val="0.1" valType="code" updates="constant"/>\u000a      </TextComponent>\u000a      <TextComponent name="orLeftBox_inst">\u000a        <Param name="opacity" val="1" valType="code" updates="constant"/>\u000a        <Param name="colorSpace" val="rgb" valType="str" updates="constant"/>\u000a        <Param name="name" val="orLeftBox_inst" valType="code" updates="None"/>\u000a        <Param name="wrapWidth" val="" valType="code" updates="constant"/>\u000a        <Param name="color" val="$colourA" valType="str" updates="set every repeat"/>\u000a        <Param name="text" val="$orStimulusLeft" valType="str" updates="set every repeat"/>\u000a        <Param name="stopVal" val="" valType="code" updates="constant"/>\u000a        <Param name="durationEstim" val="" valType="code" updates="None"/>\u000a        <Param name="pos" val="[-.6, .7]" valType="code" updates="constant"/>\u000a        <Param name="flip" val="" valType="str" updates="constant"/>\u000a        <Param name="startEstim" val="" valType="code" updates="None"/>\u000a        <Param name="units" val="from exp settings" valType="str" updates="None"/>\u000a        <Param name="startType" val="time (s)" valType="str" updates="None"/>\u000a        <Param name="ori" val="0" valType="code" updates="constant"/>\u000a        <Param name="stopType" val="duration (s)" valType="str" updates="None"/>\u000a        <Param name="startVal" val="1" valType="code" updates="None"/>\u000a        <Param name="font" val="Arial" valType="str" updates="constant"/>\u000a        <Param name="letterHeight" val="0.1" valType="code" updates="constant"/>\u000a      </TextComponent>\u000a      <TextComponent name="orRightBox_inst">\u000a        <Param name="opacity" val="1" valType="code" updates="constant"/>\u000a        <Param name="colorSpace" val="rgb" valType="str" updates="constant"/>\u000a        <Param name="name" val="orRightBox_inst" valType="code" updates="None"/>\u000a        <Param name="wrapWidth" val="" valType="code" updates="constant"/>\u000a        <Param name="color" val="$colourA" valType="str" updates="set every repeat"/>\u000a        <Param name="text" val="$orStimulusRight" valType="str" updates="set every repeat"/>\u000a        <Param name="stopVal" val="" valType="code" updates="constant"/>\u000a        <Param name="durationEstim" val="" valType="code" updates="None"/>\u000a        <Param name="pos" val="[.6, .7]" valType="code" updates="constant"/>\u000a        <Param name="flip" val="" valType="str" updates="constant"/>\u000a        <Param name="startEstim" val="" valType="code" updates="None"/>\u000a        <Param name="units" val="from exp settings" valType="str" updates="None"/>\u000a        <Param name="startType" val="time (s)" valType="str" updates="None"/>\u000a        <Param name="ori" val="0" valType="code" updates="constant"/>\u000a        <Param name="stopType" val="duration (s)" valType="str" updates="None"/>\u000a        <Param name="startVal" val="1" valType="code" updates="None"/>\u000a        <Param name="font" val="Arial" valType="str" updates="constant"/>\u000a        <Param name="letterHeight" val="0.1" valType="code" updates="constant"/>\u000a      </TextComponent>\u000a    </Routine>\u000a  </Routines>\u000a  <Flow>\u000a    <LoopInitiator loopType="TrialHandler" name="blocks">\u000a      <Param name="conditionsFile" val="$taskFile" valType="str" updates="None"/>\u000a      <Param name="name" val="blocks" valType="code" updates="None"/>\u000a      <Param name="isTrials" val="False" valType="bool" updates="None"/>\u000a      <Param name="random seed" val="" valType="code" updates="None"/>\u000a      <Param name="loopType" val="sequential" valType="str" updates="None"/>\u000a      <Param name="nReps" val="1" valType="code" updates="None"/>\u000a      <Param name="endPoints" val="[0, 1]" valType="num" updates="None"/>\u000a      <Param name="conditions" val="None" valType="str" updates="None"/>\u000a      <Param name="Selected rows" val="" valType="str" updates="None"/>\u000a    </LoopInitiator>\u000a    <Routine name="instructions"/>\u000a    <LoopInitiator loopType="TrialHandler" name="trials">\u000a      <Param name="conditionsFile" val="$block" valType="str" updates="None"/>\u000a      <Param name="name" val="trials" valType="code" updates="None"/>\u000a      <Param name="isTrials" val="True" valType="bool" updates="None"/>\u000a      <Param name="random seed" val="" valType="code" updates="None"/>\u000a      <Param name="loopType" val="random" valType="str" updates="None"/>\u000a      <Param name="nReps" val="$nBlockRepeats" valType="code" updates="None"/>\u000a      <Param name="endPoints" val="[0, 1]" valType="num" updates="None"/>\u000a      <Param name="conditions" val="None" valType="str" updates="None"/>\u000a      <Param name="Selected rows" val="" valType="str" updates="None"/>\u000a    </LoopInitiator>\u000a    <Routine name="trial"/>\u000a    <LoopTerminator name="trials"/>\u000a    <LoopTerminator name="blocks"/>\u000a    <Routine name="end"/>\u000a  </Flow>\u000a</PsychoPy2experiment>\u000a
p119
sg42
g1
(g43
g44
(dp120
VstimulusColour
p121
Vmagenta
p122
sVstimulus
p123
VDirty
p124
sVfeedbackKey
p125
Vi
sVfeedbackAllowed
p126
Vi
sVtrialtype
p127
I3
sVrequiredAllowed
p128
Ve
sVrequiredKey
p129
Ve
sVimageStimulus
p130
Vblank.png
p131
stRp132
sg67
I206592848
sg11
g86
sg6
g7
sg69
I0
sg21
I01
sg22
g23
sg70
g1
(g71
g44
(dp133
g16
g74
(g75
g76
g77
S'b'
tRp134
(I1
(I35
I2
tg79
I00
S'\x00\x00\x80?\x00\x00\x00\x00\x00\x00\x80?\x00\x00\x00\x00\x00\x00\x80?\x00\x00\x00\x00\x00\x00\x00\x00\x00\x00\x00\x00\x00\x00\x80?\x00\x00\x00\x00\x00\x00\x80?\x00\x00\x00\x00\x00\x00\x80?\x00\x00\x00\x00\x00\x00\x00\x00\x00\x00\x00\x00\x00\x00\x00\x00\x00\x00\x00\x00\x00\x00\x80?\x00\x00\x00\x00\x00\x00\x00\x00\x00\x00\x00\x00\x00\x00\x00\x00\x00\x00\x00\x00\x00\x00\x80?\x00\x00\x00\x00\x00\x00\x80?\x00\x00\x00\x00\x00\x00\x00\x00\x00\x00\x00\x00\x00\x00\x80?\x00\x00\x00\x00\x00\x00\x80?\x00\x00\x00\x00\x00\x00\x80?\x00\x00\x00\x00\x00\x00\x00\x00\x00\x00\x00\x00\x00\x00\x80?\x00\x00\x00\x00\x00\x00\x80?\x00\x00\x00\x00\x00\x00\x80?\x00\x00\x00\x00\x00\x00\x80?\x00\x00\x00\x00\x00\x00\x00\x00\x00\x00\x00\x00\x00\x00\x80?\x00\x00\x00\x00\x00\x00\x80?\x00\x00\x00\x00\x00\x00\x80?\x00\x00\x00\x00\x00\x00\x00\x00\x00\x00\x00\x00\x00\x00\x80?\x00\x00\x00\x00\x00\x00\x80?\x00\x00\x00\x00\x00\x00\x80?\x00\x00\x00\x00\x00\x00\x80?\x00\x00\x00\x00\x00\x00\x00\x00\x00\x00\x00\x00\x00\x00\x80?\x00\x00\x00\x00\x00\x00\x80?\x00\x00\x00\x00'
S'\x00\x01\x00\x01\x00\x01\x01\x01\x00\x01\x00\x01\x00\x01\x01\x01\x01\x01\x00\x01\x01\x01\x01\x01\x00\x01\x00\x01\x01\x01\x00\x01\x00\x01\x00\x01\x01\x01\x00\x01\x00\x01\x00\x01\x00\x01\x01\x01\x00\x01\x00\x01\x00\x01\x01\x01\x00\x01\x00\x01\x00\x01\x00\x01\x01\x01\x00\x01\x00\x01'
Ntbsg18
g94
(g76
(I0
tS'b'
tRp135
(I1
(I35
I2
tg29
(S'O4'
I0
I1
tRp136
(I3
S'|'
NNNI-1
I-1
I63
tbI00
(lp137
S'e'
aS'--'
p138
aNaS'--'
p139
aS'e'
aS'--'
p140
aS'--'
p141
aS'--'
p142
aS'e'
aS'--'
p143
aNaS'--'
p144
aS'e'
aS'--'
p145
aS'--'
p146
aS'--'
p147
aS'--'
p148
aS'--'
p149
aS'e'
aS'--'
p150
aS'--'
p151
aS'--'
p152
aS'--'
p153
aS'--'
p154
aS'e'
aS'--'
p155
aS'e'
aS'--'
p156
aS'--'
p157
aS'--'
p158
aS'e'
aS'--'
p159
aS'e'
aS'--'
p160
aS'e'
aS'--'
p161
aS'--'
p162
aS'--'
p163
aNaS'--'
p164
aS'i'
aS'--'
p165
aNaS'--'
p166
aS'i'
aS'--'
p167
aS'--'
p168
aS'--'
p169
aS'i'
aS'--'
p170
aNaS'--'
p171
aS'i'
aS'--'
p172
aS'--'
p173
aS'--'
p174
aNaS'--'
p175
aS'i'
aS'--'
p176
aS'i'
aS'--'
p177
aS'i'
aS'--'
p178
aS'--'
p179
aS'--'
p180
aNaS'--'
p181
aS'i'
aS'--'
p182
atbsg73
g74
(g75
g76
g77
S'b'
tRp183
(I1
(I35
I2
tg79
I00
S'\x00\x00\x80?\x00\x00\x00\x00\x00\x00\x80?\x00\x00\x00\x00\x00\x00\x80?\x00\x00\x00\x00\x00\x00\x00\x00\x00\x00\x00\x00\x00\x00\x80?\x00\x00\x00\x00\x00\x00\x80?\x00\x00\x00\x00\x00\x00\x80?\x00\x00\x00\x00\x00\x00\x00\x00\x00\x00\x00\x00\x00\x00\x00\x00\x00\x00\x00\x00\x00\x00\x80?\x00\x00\x00\x00\x00\x00\x00\x00\x00\x00\x00\x00\x00\x00\x00\x00\x00\x00\x00\x00\x00\x00\x80?\x00\x00\x00\x00\x00\x00\x80?\x00\x00\x00\x00\x00\x00\x00\x00\x00\x00\x00\x00\x00\x00\x80?\x00\x00\x00\x00\x00\x00\x80?\x00\x00\x00\x00\x00\x00\x80?\x00\x00\x00\x00\x00\x00\x00\x00\x00\x00\x00\x00\x00\x00\x80?\x00\x00\x00\x00\x00\x00\x80?\x00\x00\x00\x00\x00\x00\x80?\x00\x00\x00\x00\x00\x00\x80?\x00\x00\x00\x00\x00\x00\x00\x00\x00\x00\x00\x00\x00\x00\x80?\x00\x00\x00\x00\x00\x00\x80?\x00\x00\x00\x00\x00\x00\x80?\x00\x00\x00\x00\x00\x00\x00\x00\x00\x00\x00\x00\x00\x00\x80?\x00\x00\x00\x00\x00\x00\x80?\x00\x00\x00\x00\x00\x00\x80?\x00\x00\x00\x00\x00\x00\x80?\x00\x00\x00\x00\x00\x00\x80?\x00\x00\x00\x00\x00\x00\x80?\x00\x00\x00\x00\x00\x00\x80?\x00\x00\x00\x00'
S'\x00\x00\x00\x00\x00\x00\x00\x00\x00\x00\x00\x00\x00\x00\x00\x00\x00\x00\x00\x00\x00\x00\x00\x00\x00\x00\x00\x00\x00\x00\x00\x00\x00\x00\x00\x00\x00\x00\x00\x00\x00\x00\x00\x00\x00\x00\x00\x00\x00\x00\x00\x00\x00\x00\x00\x00\x00\x00\x00\x00\x00\x00\x00\x00\x00\x00\x00\x00\x00\x00'
Ntbsg20
g74
(g75
g76
g77
S'b'
tRp184
(I1
(I35
I2
tg79
I00
S"\x80h\xea?\x00\x00\x00\x00\x00\x00\x00\x00\x00\x00\x00\x00\x80F\x94<\x00\x00\x00\x00\x00\x00\x00\x00\x00\x00\x00\x00\x106\x1a>\x00\x00\x00\x00\x00\x00\x00\x00\x00\x00\x00\x00\x00r\x89<\x00\x00\x00\x00\x00\x00\x00\x00\x00\x00\x00\x00\x00\x00\x00\x00\x00\x00\x00\x00\x00\xfd\x85<\x00\x00\x00\x00\x00\x00\x00\x00\x00\x00\x00\x00\x00\x00\x00\x00\x00\x00\x00\x00\x80\x94J=\x00\x00\x00\x00\x00tP=\x00\x00\x00\x00\x00\x00\x00\x00\x00\x00\x00\x00hT\xf9>\x00\x00\x00\x00\x80'\x85<\x00\x00\x00\x00\x80a\x96<\x00\x00\x00\x00\x00\x00\x00\x00\x00\x00\x00\x00\x00\x00\x00\x00\x00\x00\x00\x00\xd0I\xf7>\x00\x00\x00\x00\x00\x00\x00\x00\x00\x00\x00\x00\x14=\x82?\x00\x00\x00\x00\x00\x00\x00\x00\x00\x00\x00\x00\x00\xb3\n=\x00\x00\x00\x00\x00\x00\x00\x00\x00\x00\x00\x00\x10\xba\t>\x00\x00\x00\x00\x00\x00\x00\x00\x00\x00\x00\x00\x00\x00\x00\x00\x00\x00\x00\x000>\xc4>\x00\x00\x00\x00\x80\xed\x8a<\x00\x00\x00\x00\x18\xbe\xe6>\x00\x00\x00\x00\x00\x00\x00\x00\x00\x00\x00\x00\x00\x00\x00\x00\x00\x00\x00\x00\x80\x8d\x87<\x00\x00\x00\x00"
S'\x00\x01\x01\x01\x00\x01\x01\x01\x00\x01\x01\x01\x00\x01\x01\x01\x01\x01\x00\x01\x01\x01\x01\x01\x00\x01\x00\x01\x01\x01\x00\x01\x00\x01\x00\x01\x01\x01\x01\x01\x00\x01\x01\x01\x00\x01\x01\x01\x00\x01\x01\x01\x00\x01\x01\x01\x01\x01\x00\x01\x00\x01\x00\x01\x01\x01\x01\x01\x00\x01'
Ntbsg17
g74
(g75
g76
g77
S'b'
tRp185
(I1
(I35
I2
tg79
I00
S"\xef\xff\x10@\x00\x00\x00\x00\x80\x99\x8a<\x00\x00\x00\x00\xb0\r>>\x00\x00\x00\x00\x00\x00\x00\x00\x00\x00\x00\x000\xe4\x1a>\x00\x00\x00\x00\x00\xe2\xab=\x00\x00\x00\x00\x80\x13\x8c<\x00\x00\x00\x00\x00\x00\x00\x00\x00\x00\x00\x00\x00\x00\x00\x00\x00\x00\x00\x00\x80\xa3O=\x00\x00\x00\x00\x00\x00\x00\x00\x00\x00\x00\x00\x00\x00\x00\x00\x00\x00\x00\x00`c\xcc=\x00\x00\x00\x00 \xf5\xf0=\x00\x00\x00\x00\x00\x00\x00\x00\x00\x00\x00\x008\xa9\x04?\x00\x00\x00\x00\x80\xbb\x88=\x00\x00\x00\x00\x80+\t>\x00\x00\x00\x00\x00\x00\x00\x00\x00\x00\x00\x00\x00\x81O=\x00\x00\x00\x00\xb4\x18\x00?\x00\x00\x00\x00\xa0\xce\xb5>\x00\x00\x00\x00(D\xa4?\x00\x00\x00\x00\x00\x00\x00\x00\x00\x00\x00\x00\xc0\xd0*>\x00\x00\x00\x00\xd8\xe8\xe5>\x00\x00\x00\x00\x00\x01\x1b>\x00\x00\x00\x00\x00\x00\x00\x00\x00\x00\x00\x00\x00\x83z<\x00\x00\x00\x00\x94\x88L?\x00\x00\x00\x00\x00\x05\xac=\x00\x00\x00\x00\xbc'b?\x00\x00\x00\x00\x00\x00\x00\x00\x00\x00\x00\x00@\xbc\xce=\x00\x00\x00\x00 \xb5\xec=\x00\x00\x00\x00"
S'\x00\x01\x00\x01\x00\x01\x01\x01\x00\x01\x00\x01\x00\x01\x01\x01\x01\x01\x00\x01\x01\x01\x01\x01\x00\x01\x00\x01\x01\x01\x00\x01\x00\x01\x00\x01\x01\x01\x00\x01\x00\x01\x00\x01\x00\x01\x01\x01\x00\x01\x00\x01\x00\x01\x01\x01\x00\x01\x00\x01\x00\x01\x00\x01\x01\x01\x00\x01\x00\x01'
Ntbsg19
g74
(g75
g76
g77
S'b'
tRp186
(I1
(I35
I2
tg79
I00
S'\x00\x00\x80?\x00\x00\x00\x00\x00\x00\x00\x00\x00\x00\x00\x00\x00\x00\x80?\x00\x00\x00\x00\x00\x00\x00\x00\x00\x00\x00\x00\x00\x00\x80?\x00\x00\x00\x00\x00\x00\x00\x00\x00\x00\x00\x00\x00\x00\x80?\x00\x00\x00\x00\x00\x00\x00\x00\x00\x00\x00\x00\x00\x00\x00\x00\x00\x00\x00\x00\x00\x00\x80?\x00\x00\x00\x00\x00\x00\x00\x00\x00\x00\x00\x00\x00\x00\x00\x00\x00\x00\x00\x00\x00\x00\x80?\x00\x00\x00\x00\x00\x00\x80?\x00\x00\x00\x00\x00\x00\x00\x00\x00\x00\x00\x00\x00\x00\x80?\x00\x00\x00\x00\x00\x00\x80?\x00\x00\x00\x00\x00\x00\x80?\x00\x00\x00\x00\x00\x00\x00\x00\x00\x00\x00\x00\x00\x00\x00\x00\x00\x00\x00\x00\x00\x00\x80?\x00\x00\x00\x00\x00\x00\x00\x00\x00\x00\x00\x00\x00\x00\x80?\x00\x00\x00\x00\x00\x00\x00\x00\x00\x00\x00\x00\x00\x00\x80?\x00\x00\x00\x00\x00\x00\x00\x00\x00\x00\x00\x00\x00\x00\x80?\x00\x00\x00\x00\x00\x00\x00\x00\x00\x00\x00\x00\x00\x00\x00\x00\x00\x00\x00\x00\x00\x00\x80?\x00\x00\x00\x00\x00\x00\x80?\x00\x00\x00\x00\x00\x00\x80?\x00\x00\x00\x00\x00\x00\x00\x00\x00\x00\x00\x00\x00\x00\x00\x00\x00\x00\x00\x00\x00\x00\x80?\x00\x00\x00\x00'
S'\x00\x01\x00\x01\x00\x01\x01\x01\x00\x01\x00\x01\x00\x01\x01\x01\x01\x01\x00\x01\x01\x01\x01\x01\x00\x01\x00\x01\x01\x01\x00\x01\x00\x01\x00\x01\x01\x01\x00\x01\x00\x01\x00\x01\x00\x01\x01\x01\x00\x01\x00\x01\x00\x01\x01\x01\x00\x01\x00\x01\x00\x01\x00\x01\x01\x01\x00\x01\x00\x01'
Ntbsg80
g74
(g75
g76
g77
S'b'
tRp187
(I1
(I35
I2
tg79
I00
S'\x00\x00\x00A\x00\x00\x00\x00\x00\x00\x00@\x00\x00\x00\x00\x00\x00\xa0A\x00\x00\x00\x00\x00\x00\x00\x00\x00\x00\x00\x00\x00\x00PA\x00\x00\x00\x00\x00\x00\x00\x00\x00\x00\x00\x00\x00\x00\x90A\x00\x00\x00\x00\x00\x00\x00\x00\x00\x00\x00\x00\x00\x00\x00\x00\x00\x00\x00\x00\x00\x00\xb8A\x00\x00\x00\x00\x00\x00\x00\x00\x00\x00\x00\x00\x00\x00\x00\x00\x00\x00\x00\x00\x00\x00\x80A\x00\x00\x00\x00\x00\x00\xa8A\x00\x00\x00\x00\x00\x00\x00\x00\x00\x00\x00\x00\x00\x00@@\x00\x00\x00\x00\x00\x00 A\x00\x00\x00\x00\x00\x00pA\x00\x00\x00\x00\x00\x00\x00\x00\x00\x00\x00\x00\x00\x00@A\x00\x00\x00\x00\x00\x00\x80?\x00\x00\x00\x00\x00\x00\xe0@\x00\x00\x00\x00\x00\x00\x10A\x00\x00\x00\x00\x00\x00\x00\x00\x00\x00\x00\x00\x00\x00\x98A\x00\x00\x00\x00\x00\x00\x80@\x00\x00\x00\x00\x00\x00\xc0A\x00\x00\x00\x00\x00\x00\x00\x00\x00\x00\x00\x00\x00\x00`A\x00\x00\x00\x00\x00\x00\xc0@\x00\x00\x00\x00\x00\x00\xb0A\x00\x00\x00\x00\x00\x00\xa0@\x00\x00\x00\x00\x00\x00\xc8A\x00\x00\x00\x00\x00\x00\x88A\x00\x00\x00\x00\x00\x000A\x00\x00\x00\x00'
S'\x00\x01\x00\x01\x00\x01\x01\x01\x00\x01\x00\x01\x00\x01\x01\x01\x01\x01\x00\x01\x01\x01\x01\x01\x00\x01\x00\x01\x01\x01\x00\x01\x00\x01\x00\x01\x01\x01\x00\x01\x00\x01\x00\x01\x00\x01\x01\x01\x00\x01\x00\x01\x00\x01\x01\x01\x00\x01\x00\x01\x00\x01\x00\x01\x00\x01\x00\x01\x00\x01'
Ntbsg15
g94
(g76
(I0
tS'b'
tRp188
(I1
(I35
I2
tg136
I00
(lp189
S'i'
aS'--'
p190
aS'i'
aS'--'
p191
aS'i'
aS'--'
p192
aS'--'
p193
aS'--'
p194
aS'i'
aS'--'
p195
aS'i'
aS'--'
p196
aS'i'
aS'--'
p197
aS'--'
p198
aS'--'
p199
aS'--'
p200
aS'--'
p201
aS'i'
aS'--'
p202
aS'--'
p203
aS'--'
p204
aS'--'
p205
aS'--'
p206
aS'i'
aS'--'
p207
aS'i'
aS'--'
p208
aS'--'
p209
aS'--'
p210
aS'i'
aS'--'
p211
aS'i'
aS'--'
p212
aS'i'
aS'--'
p213
aS'--'
p214
aS'--'
p215
aS'i'
aS'--'
p216
aS'e'
aS'--'
p217
aS'e'
aS'--'
p218
aS'e'
aS'--'
p219
aS'--'
p220
aS'--'
p221
aS'e'
aS'--'
p222
aS'e'
aS'--'
p223
aS'e'
aS'--'
p224
aS'--'
p225
aS'--'
p226
aS'e'
aS'--'
p227
aS'e'
aS'--'
p228
aS'e'
aS'--'
p229
aS'e'
aS'--'
p230
aS'--'
p231
aS'--'
p232
aS'e'
aS'--'
p233
aS'e'
aS'--'
p234
atbstRp235
(dp236
g84
(dp237
g16
I01
sg73
I01
sg20
I01
sg18
I00
sg17
I01
sg19
I01
sg80
I01
sg15
I00
ssg86
g117
sg87
(lp238
g73
ag80
ag15
ag16
ag17
ag18
ag19
ag20
asg89
(lp239
I35
aI2
asbsg91
S'random'
p240
sg93
g94
(g76
(I0
tS'b'
tRp241
(I1
(I35
I2
tg96
I01
S'\x05\x00\x00\x00\x14\x00\x00\x00\x01\x00\x00\x00\x0f\x00\x00\x00\x19\x00\x00\x00\x1f\x00\x00\x00\x1d\x00\x00\x00\x15\x00\x00\x00\x00\x00\x00\x00\x16\x00\x00\x00\x10\x00\x00\x00"\x00\x00\x00\x13\x00\x00\x00\x04\x00\x00\x00\x1c\x00\x00\x00\x11\x00\x00\x00\x0c\x00\x00\x00!\x00\x00\x00\x06\x00\x00\x00\x18\x00\x00\x00\x02\x00\x00\x00\r\x00\x00\x00\x1e\x00\x00\x00\t\x00\x00\x00\x1a\x00\x00\x00 \x00\x00\x00\x0e\x00\x00\x00\x17\x00\x00\x00\n\x00\x00\x00\x12\x00\x00\x00\x0b\x00\x00\x00\x1b\x00\x00\x00\x03\x00\x00\x00\x08\x00\x00\x00\x07\x00\x00\x00\x07\x00\x00\x00\x1e\x00\x00\x00\x14\x00\x00\x00\r\x00\x00\x00"\x00\x00\x00\x08\x00\x00\x00\x10\x00\x00\x00\x1c\x00\x00\x00\x16\x00\x00\x00\n\x00\x00\x00\x19\x00\x00\x00\x05\x00\x00\x00\x1b\x00\x00\x00!\x00\x00\x00\x01\x00\x00\x00\x00\x00\x00\x00\x0f\x00\x00\x00\x11\x00\x00\x00\x1f\x00\x00\x00\x13\x00\x00\x00\t\x00\x00\x00\x0e\x00\x00\x00\x1d\x00\x00\x00\x02\x00\x00\x00\x15\x00\x00\x00\x0b\x00\x00\x00\x17\x00\x00\x00 \x00\x00\x00\x12\x00\x00\x00\x18\x00\x00\x00\x06\x00\x00\x00\x0c\x00\x00\x00\x03\x00\x00\x00\x1a\x00\x00\x00\x04\x00\x00\x00'
tbsg97
I00
sg98
I2
sg99
I44
sg100
(lp242
g1
(g43
g44
(dp243
g121
Vwhite
p244
sg123
V 
sg125
Ve
sg126
Ve
sg127
I1
sg128
Vi
sg129
Vi
sg130
Vflower1.jpg
p245
stRp246
ag1
(g43
g44
(dp247
g121
g244
sg123
V 
sg125
Ve
sg126
Ve
sg127
I1
sg128
Vi
sg129
Vi
sg130
Vflower2.jpg
p248
stRp249
ag1
(g43
g44
(dp250
g121
g244
sg123
V 
sg125
Ve
sg126
Ve
sg127
I1
sg128
Vi
sg129
Vi
sg130
Vflower3.jpg
p251
stRp252
ag1
(g43
g44
(dp253
g121
g244
sg123
V 
sg125
Ve
sg126
Ve
sg127
I1
sg128
Vi
sg129
Vi
sg130
Vflower4.jpg
p254
stRp255
ag1
(g43
g44
(dp256
g121
g244
sg123
V 
sg125
Ve
sg126
Ve
sg127
I1
sg128
Vi
sg129
Vi
sg130
Vflower5.jpg
p257
stRp258
ag1
(g43
g44
(dp259
g121
g244
sg123
V 
sg125
Ve
sg126
Ve
sg127
I1
sg128
Vi
sg129
Vi
sg130
g245
stRp260
ag1
(g43
g44
(dp261
g121
g244
sg123
V 
sg125
Ve
sg126
Ve
sg127
I1
sg128
Vi
sg129
Vi
sg130
g248
stRp262
ag1
(g43
g44
(dp263
g121
g244
sg123
V 
sg125
Ve
sg126
Ve
sg127
I1
sg128
Vi
sg129
Vi
sg130
g251
stRp264
ag1
(g43
g44
(dp265
g121
g244
sg123
V 
sg125
Ve
sg126
Ve
sg127
I1
sg128
Vi
sg129
Vi
sg130
g254
stRp266
ag1
(g43
g44
(dp267
g121
g244
sg123
V 
sg125
Ve
sg126
Ve
sg127
I1
sg128
Vi
sg129
Vi
sg130
g257
stRp268
ag1
(g43
g44
(dp269
g121
g122
sg123
VAttractive
p270
sg125
Ve
sg126
Ve
sg127
I2
sg128
Vi
sg129
Vi
sg130
g131
stRp271
ag1
(g43
g44
(dp272
g121
g122
sg123
VEnjoy
p273
sg125
Ve
sg126
Ve
sg127
I2
sg128
Vi
sg129
Vi
sg130
g131
stRp274
ag1
(g43
g44
(dp275
g121
g122
sg123
VFavorable
p276
sg125
Ve
sg126
Ve
sg127
I2
sg128
Vi
sg129
Vi
sg130
g131
stRp277
ag1
(g43
g44
(dp278
g121
g122
sg123
VLikeable
p279
sg125
Ve
sg126
Ve
sg127
I2
sg128
Vi
sg129
Vi
sg130
g131
stRp280
ag1
(g43
g44
(dp281
g121
g122
sg123
VLovely
p282
sg125
Ve
sg126
Ve
sg127
I2
sg128
Vi
sg129
Vi
sg130
g131
stRp283
ag1
(g43
g44
(dp284
g121
g122
sg123
g270
sg125
Ve
sg126
Ve
sg127
I2
sg128
Vi
sg129
Vi
sg130
g131
stRp285
ag1
(g43
g44
(dp286
g121
g122
sg123
g273
sg125
Ve
sg126
Ve
sg127
I2
sg128
Vi
sg129
Vi
sg130
g131
stRp287
ag1
(g43
g44
(dp288
g121
g122
sg123
g276
sg125
Ve
sg126
Ve
sg127
I2
sg128
Vi
sg129
Vi
sg130
g131
stRp289
ag1
(g43
g44
(dp290
g121
g122
sg123
g279
sg125
Ve
sg126
Ve
sg127
I2
sg128
Vi
sg129
Vi
sg130
g131
stRp291
ag1
(g43
g44
(dp292
g121
g122
sg123
g282
sg125
Ve
sg126
Ve
sg127
I2
sg128
Vi
sg129
Vi
sg130
g131
stRp293
ag1
(g43
g44
(dp294
g121
g122
sg123
VAwful
p295
sg125
Vi
sg126
Vi
sg127
I3
sg128
Ve
sg129
Ve
sg130
g131
stRp296
ag1
(g43
g44
(dp297
g121
g122
sg123
VDespise
p298
sg125
Vi
sg126
Vi
sg127
I3
sg128
Ve
sg129
Ve
sg130
g131
stRp299
ag1
(g43
g44
(dp300
g121
g122
sg123
g124
sg125
Vi
sg126
Vi
sg127
I3
sg128
Ve
sg129
Ve
sg130
g131
stRp301
ag1
(g43
g44
(dp302
g121
g122
sg123
VDisgust
p303
sg125
Vi
sg126
Vi
sg127
I3
sg128
Ve
sg129
Ve
sg130
g131
stRp304
ag1
(g43
g44
(dp305
g121
g122
sg123
VNasty
p306
sg125
Vi
sg126
Vi
sg127
I3
sg128
Ve
sg129
Ve
sg130
g131
stRp307
ag1
(g43
g44
(dp308
g121
g122
sg123
g295
sg125
Vi
sg126
Vi
sg127
I3
sg128
Ve
sg129
Ve
sg130
g131
stRp309
ag1
(g43
g44
(dp310
g121
g122
sg123
g298
sg125
Vi
sg126
Vi
sg127
I3
sg128
Ve
sg129
Ve
sg130
g131
stRp311
ag1
(g43
g44
(dp312
g121
g122
sg123
g124
sg125
Vi
sg126
Vi
sg127
I3
sg128
Ve
sg129
Ve
sg130
g131
stRp313
ag1
(g43
g44
(dp314
g121
g122
sg123
g303
sg125
Vi
sg126
Vi
sg127
I3
sg128
Ve
sg129
Ve
sg130
g131
stRp315
ag1
(g43
g44
(dp316
g121
g122
sg123
g306
sg125
Vi
sg126
Vi
sg127
I3
sg128
Ve
sg129
Ve
sg130
g131
stRp317
ag1
(g43
g44
(dp318
g121
g122
sg123
g295
sg125
Vi
sg126
Vi
sg127
I3
sg128
Ve
sg129
Ve
sg130
g131
stRp319
ag1
(g43
g44
(dp320
g121
g122
sg123
g298
sg125
Vi
sg126
Vi
sg127
I3
sg128
Ve
sg129
Ve
sg130
g131
stRp321
ag132
ag1
(g43
g44
(dp322
g121
g122
sg123
g303
sg125
Vi
sg126
Vi
sg127
I3
sg128
Ve
sg129
Ve
sg130
g131
stRp323
ag1
(g43
g44
(dp324
g121
g122
sg123
g306
sg125
Vi
sg126
Vi
sg127
I3
sg128
Ve
sg129
Ve
sg130
g131
stRp325
asg110
Nsg111
g28
(g96
S' \x00\x00\x00'
tRp326
sg113
I25
sg114
I25
sg115
I70
sg116
I01
sbasS'saveWideText'
p327
I01
sS'thisEntry'
p328
(dp329
sS'version'
p330
S''
sS'_paramNamesSoFar'
p331
(lp332
g46
ag48
ag50
ag52
ag53
ag63
ag56
ag57
ag59
ag61
ag55
ag65
aVstimulusColour
p333
aVstimulus
p334
aVfeedbackKey
p335
aVfeedbackAllowed
p336
aVtrialtype
p337
aVrequiredAllowed
p338
aVrequiredKey
p339
aVimageStimulus
p340
asS'entries'
p341
(lp342
(dp343
g46
g47
sg48
g49
sg16
I1
sg27
g31
sg335
Ve
sg336
Ve
sg15
S'i'
sg19
I0
sg24
V1
sg340
Vblank.png
p344
sS'trials.thisN'
p345
I0
sg32
g12
sg337
I3
sg56
I2
sg57
g58
sS'trials.thisTrialN'
p346
I0
sg338
Vi
sg59
g60
sS'blocks.thisN'
p347
I0
sS'blocks.thisTrialN'
p348
I0
sg33
g34
sg61
V 
sg55
I1
sg65
V 
sS'trials.thisIndex'
p349
g28
(g96
S'\x04\x00\x00\x00'
tRp350
sg333
Vmagenta
p351
sg339
Vi
sS'blocks.thisIndex'
p352
g28
(g96
S'\x00\x00\x00\x00'
tRp353
sS'trials.thisRepN'
p354
I0
sg26
V
sg50
g103
sg334
VLovely
p355
sg52
V 
sg18
Nsg53
V 
sg17
F0.81825995445251465
sS'blocks.thisRepN'
p356
I0
sg25
V
sg63
g104
sa(dp357
g46
g47
sg48
g49
sg16
I1
sg27
g31
sg335
Vi
sg336
Vi
sg15
S'e'
sg19
I1
sg24
V1
sg340
g344
sS'trials.thisN'
p358
I1
sg18
S'i'
sg337
I4
sg56
I2
sg57
g58
sS'trials.thisTrialN'
p359
I1
sg338
Ve
sg59
g60
sS'blocks.thisN'
p360
I0
sS'blocks.thisTrialN'
p361
I0
sg32
g12
sg33
g34
sg61
V 
sg55
I1
sg65
V 
sS'trials.thisIndex'
p362
g28
(g96
S'\x07\x00\x00\x00'
tRp363
sg333
g351
sg339
Ve
sS'blocks.thisIndex'
p364
g353
sS'trials.thisRepN'
p365
I0
sg26
V
sg50
g103
sg334
VDirty
p366
sg52
V 
sg20
F0.31706786155700684
sg53
V 
sg17
F1.3336701393127441
sS'blocks.thisRepN'
p367
I0
sg25
V
sg63
g104
sa(dp368
g46
g47
sg48
g49
sg16
I1
sg27
g31
sg335
Ve
sg336
Ve
sg15
S'i'
sg19
I0
sg24
V1
sg340
g344
sS'trials.thisN'
p369
I2
sg32
g12
sg337
I3
sg56
I2
sg57
g58
sS'trials.thisTrialN'
p370
I2
sg338
Vi
sg59
g60
sS'blocks.thisN'
p371
I0
sS'blocks.thisTrialN'
p372
I0
sg33
g34
sg61
V 
sg55
I1
sg65
V 
sS'trials.thisIndex'
p373
g28
(g96
S'\x03\x00\x00\x00'
tRp374
sg333
g351
sg339
Vi
sS'blocks.thisIndex'
p375
g353
sS'trials.thisRepN'
p376
I0
sg26
V
sg50
g103
sg334
VLikeable
p377
sg52
V 
sg18
Nsg53
V 
sg17
F0.068639993667602539
sS'blocks.thisRepN'
p378
I0
sg25
V
sg63
g104
sa(dp379
g46
g47
sg48
g49
sg16
I1
sg27
g31
sg335
Vi
sg336
Vi
sg15
S'e'
sg19
I1
sg24
V1
sg340
g344
sS'trials.thisN'
p380
I3
sg18
S'i'
sg337
I4
sg56
I2
sg57
g58
sS'trials.thisTrialN'
p381
I3
sg338
Ve
sg59
g60
sS'blocks.thisN'
p382
I0
sS'blocks.thisTrialN'
p383
I0
sg32
g12
sg33
g34
sg61
V 
sg55
I1
sg65
V 
sS'trials.thisIndex'
p384
g28
(g96
S'\x06\x00\x00\x00'
tRp385
sg333
g351
sg339
Ve
sS'blocks.thisIndex'
p386
g353
sS'trials.thisRepN'
p387
I0
sg26
V
sg50
g103
sg334
VDespise
p388
sg52
V 
sg20
F0.050711154937744141
sg53
V 
sg17
F0.16771912574768066
sS'blocks.thisRepN'
p389
I0
sg25
V
sg63
g104
sa(dp390
g46
g47
sg48
g49
sg16
I1
sg27
g31
sg335
Ve
sg336
Ve
sg15
S'i'
sg19
I1
sg24
V1
sg340
g344
sS'trials.thisN'
p391
I4
sg18
S'e'
sg337
I3
sg56
I2
sg57
g58
sS'trials.thisTrialN'
p392
I4
sg338
Vi
sg59
g60
sS'blocks.thisN'
p393
I0
sS'blocks.thisTrialN'
p394
I0
sg32
g12
sg33
g34
sg61
V 
sg55
I1
sg65
V 
sS'trials.thisIndex'
p395
g28
(g96
S'\x02\x00\x00\x00'
tRp396
sg333
g351
sg339
Vi
sS'blocks.thisIndex'
p397
g353
sS'trials.thisRepN'
p398
I0
sg26
V
sg50
g103
sg334
VFavorable
p399
sg52
V 
sg20
F0.43481016159057617
sg53
V 
sg17
F2.3191750049591064
sS'blocks.thisRepN'
p400
I0
sg25
V
sg63
g104
sa(dp401
g46
g47
sg48
g49
sg16
I1
sg27
g31
sg335
Ve
sg336
Ve
sg15
S'i'
sg19
I0
sg24
V1
sg340
g344
sS'trials.thisN'
p402
I5
sg32
g12
sg337
I3
sg56
I2
sg57
g58
sS'trials.thisTrialN'
p403
I5
sg338
Vi
sg59
g60
sS'blocks.thisN'
p404
I0
sS'blocks.thisTrialN'
p405
I0
sg33
g34
sg61
V 
sg55
I1
sg65
V 
sS'trials.thisIndex'
p406
g28
(g96
S'\x01\x00\x00\x00'
tRp407
sg333
g351
sg339
Vi
sS'blocks.thisIndex'
p408
g353
sS'trials.thisRepN'
p409
I0
sg26
V
sg50
g103
sg334
VEnjoy
p410
sg52
V 
sg18
Nsg53
V 
sg17
F0.035130977630615234
sS'blocks.thisRepN'
p411
I0
sg25
V
sg63
g104
sa(dp412
g46
g47
sg48
g49
sg16
I1
sg27
g31
sg335
Ve
sg336
Ve
sg15
S'i'
sg19
I1
sg24
V1
sg340
g344
sS'trials.thisN'
p413
I6
sg18
S'e'
sg337
I3
sg56
I2
sg57
g58
sS'trials.thisTrialN'
p414
I6
sg338
Vi
sg59
g60
sS'blocks.thisN'
p415
I0
sS'blocks.thisTrialN'
p416
I0
sg32
g12
sg33
g34
sg61
V 
sg55
I1
sg65
V 
sS'trials.thisIndex'
p417
g28
(g96
S'\x00\x00\x00\x00'
tRp418
sg333
g351
sg339
Vi
sS'blocks.thisIndex'
p419
g353
sS'trials.thisRepN'
p420
I0
sg26
V
sg50
g103
sg334
VAttractive
p421
sg52
V 
sg20
F0.11559200286865234
sg53
V 
sg17
F0.18302202224731445
sS'blocks.thisRepN'
p422
I0
sg25
V
sg63
g104
sa(dp423
g46
g47
sg48
g49
sg16
I1
sg27
g31
sg335
Vi
sg336
Vi
sg15
S'e'
sg19
I0
sg24
V1
sg340
g344
sS'trials.thisN'
p424
I7
sg32
g12
sg337
I4
sg56
I2
sg57
g58
sS'trials.thisTrialN'
p425
I7
sg338
Ve
sg59
g60
sS'blocks.thisN'
p426
I0
sS'blocks.thisTrialN'
p427
I0
sg33
g34
sg61
V 
sg55
I1
sg65
V 
sS'trials.thisIndex'
p428
g28
(g96
S'\x05\x00\x00\x00'
tRp429
sg333
g351
sg339
Ve
sS'blocks.thisIndex'
p430
g353
sS'trials.thisRepN'
p431
I0
sg26
V
sg50
g103
sg334
VAwful
p432
sg52
V 
sg18
Nsg53
V 
sg17
F0.11776900291442871
sS'blocks.thisRepN'
p433
I0
sg25
V
sg63
g104
sa(dp434
g46
g47
sg48
g49
sg16
I1
sg27
g31
sg335
Vi
sg336
Vi
sg15
S'e'
sg19
I0
sg24
V1
sg340
g344
sS'trials.thisN'
p435
I8
sg32
g12
sg337
I4
sg56
I2
sg57
g58
sS'trials.thisTrialN'
p436
I8
sg338
Ve
sg59
g60
sS'blocks.thisN'
p437
I0
sS'blocks.thisTrialN'
p438
I0
sg33
g34
sg61
V 
sg55
I1
sg65
V 
sS'trials.thisIndex'
p439
g28
(g96
S'\x08\x00\x00\x00'
tRp440
sg333
g351
sg339
Ve
sS'blocks.thisIndex'
p441
g353
sS'trials.thisRepN'
p442
I0
sg26
V
sg50
g103
sg334
VDisgust
p443
sg52
V 
sg18
Nsg53
V 
sg17
F0.018627166748046875
sS'blocks.thisRepN'
p444
I0
sg25
V
sg63
g104
sa(dp445
g46
g47
sg48
g49
sg16
I1
sg27
g31
sg335
Vi
sg336
Vi
sg15
S'e'
sg19
I0
sg24
V1
sg340
g344
sS'trials.thisN'
p446
I9
sg32
g12
sg337
I4
sg56
I2
sg57
g58
sS'trials.thisTrialN'
p447
I9
sg338
Ve
sg59
g60
sS'blocks.thisN'
p448
I0
sS'blocks.thisTrialN'
p449
I0
sg33
g34
sg61
V 
sg55
I1
sg65
V 
sS'trials.thisIndex'
p450
g28
(g96
S'\t\x00\x00\x00'
tRp451
sg333
g351
sg339
Ve
sS'blocks.thisIndex'
p452
g353
sS'trials.thisRepN'
p453
I0
sg26
V
sg50
g103
sg334
VNasty
p454
sg52
V 
sg18
Nsg53
V 
sg17
F0.033507108688354492
sS'blocks.thisRepN'
p455
I0
sg25
V
sg63
g104
sa(dp456
g46
g47
sg48
g49
sg16
I1
sg27
g31
sg335
Ve
sg336
Ve
sg15
S'i'
sg19
I1
sg24
V1
sg340
g344
sS'trials.thisN'
p457
I10
sg18
S'e'
sg337
I3
sg56
I2
sg57
g58
sS'trials.thisTrialN'
p458
I0
sg338
Vi
sg59
g60
sS'blocks.thisN'
p459
I0
sS'blocks.thisTrialN'
p460
I0
sg32
g12
sg33
g34
sg61
V 
sg55
I1
sg65
V 
sS'trials.thisIndex'
p461
g28
(g96
S'\x03\x00\x00\x00'
tRp462
sg333
g351
sg339
Vi
sS'blocks.thisIndex'
p463
g353
sS'trials.thisRepN'
p464
I1
sg26
V
sg50
g103
sg334
g377
sg52
V 
sg20
F0.034241914749145508
sg53
V 
sg17
F0.099534988403320312
sS'blocks.thisRepN'
p465
I0
sg25
V
sg63
g104
sa(dp466
g46
g47
sg48
g49
sg16
I1
sg27
g31
sg335
Vi
sg336
Vi
sg15
S'e'
sg19
I0
sg24
V1
sg340
g344
sS'trials.thisN'
p467
I11
sg32
g12
sg337
I4
sg56
I2
sg57
g58
sS'trials.thisTrialN'
p468
I1
sg338
Ve
sg59
g60
sS'blocks.thisN'
p469
I0
sS'blocks.thisTrialN'
p470
I0
sg33
g34
sg61
V 
sg55
I1
sg65
V 
sS'trials.thisIndex'
p471
g28
(g96
S'\x06\x00\x00\x00'
tRp472
sg333
g351
sg339
Ve
sS'blocks.thisIndex'
p473
g353
sS'trials.thisRepN'
p474
I1
sg26
V
sg50
g103
sg334
g388
sg52
V 
sg18
Nsg53
V 
sg17
F0.11655187606811523
sS'blocks.thisRepN'
p475
I0
sg25
V
sg63
g104
sa(dp476
g46
g47
sg48
g49
sg16
I1
sg27
g31
sg335
Vi
sg336
Vi
sg15
S'e'
sg19
I0
sg24
V1
sg340
g344
sS'trials.thisN'
p477
I12
sg32
g12
sg337
I4
sg56
I2
sg57
g58
sS'trials.thisTrialN'
p478
I2
sg338
Ve
sg59
g60
sS'blocks.thisN'
p479
I0
sS'blocks.thisTrialN'
p480
I0
sg33
g34
sg61
V 
sg55
I1
sg65
V 
sS'trials.thisIndex'
p481
g28
(g96
S'\x05\x00\x00\x00'
tRp482
sg333
g351
sg339
Ve
sS'blocks.thisIndex'
p483
g353
sS'trials.thisRepN'
p484
I1
sg26
V
sg50
g103
sg334
g432
sg52
V 
sg18
Nsg53
V 
sg17
F0.033479928970336914
sS'blocks.thisRepN'
p485
I0
sg25
V
sg63
g104
sa(dp486
g46
g47
sg48
g49
sg16
I1
sg27
g31
sg335
Vi
sg336
Vi
sg15
S'e'
sg19
I0
sg24
V1
sg340
g344
sS'trials.thisN'
p487
I13
sg32
g12
sg337
I4
sg56
I2
sg57
g58
sS'trials.thisTrialN'
p488
I3
sg338
Ve
sg59
g60
sS'blocks.thisN'
p489
I0
sS'blocks.thisTrialN'
p490
I0
sg33
g34
sg61
V 
sg55
I1
sg65
V 
sS'trials.thisIndex'
p491
g28
(g96
S'\x08\x00\x00\x00'
tRp492
sg333
g351
sg339
Ve
sS'blocks.thisIndex'
p493
g353
sS'trials.thisRepN'
p494
I1
sg26
V
sg50
g103
sg334
g443
sg52
V 
sg18
Nsg53
V 
sg17
F0.017724990844726562
sS'blocks.thisRepN'
p495
I0
sg25
V
sg63
g104
sa(dp496
g46
g47
sg48
g49
sg16
I1
sg27
g31
sg335
Ve
sg336
Ve
sg15
S'i'
sg19
I0
sg24
V1
sg340
g344
sS'trials.thisN'
p497
I14
sg32
g12
sg337
I3
sg56
I2
sg57
g58
sS'trials.thisTrialN'
p498
I4
sg338
Vi
sg59
g60
sS'blocks.thisN'
p499
I0
sS'blocks.thisTrialN'
p500
I0
sg33
g34
sg61
V 
sg55
I1
sg65
V 
sS'trials.thisIndex'
p501
g28
(g96
S'\x04\x00\x00\x00'
tRp502
sg333
g351
sg339
Vi
sS'blocks.thisIndex'
p503
g353
sS'trials.thisRepN'
p504
I1
sg26
V
sg50
g103
sg334
g355
sg52
V 
sg18
Nsg53
V 
sg17
F0.083079814910888672
sS'blocks.thisRepN'
p505
I0
sg25
V
sg63
g104
sa(dp506
g46
g47
sg48
g49
sg16
I1
sg27
g31
sg335
Ve
sg336
Ve
sg15
S'i'
sg19
I1
sg24
V1
sg340
g344
sS'trials.thisN'
p507
I15
sg18
S'e'
sg337
I3
sg56
I2
sg57
g58
sS'trials.thisTrialN'
p508
I5
sg338
Vi
sg59
g60
sS'blocks.thisN'
p509
I0
sS'blocks.thisTrialN'
p510
I0
sg32
g12
sg33
g34
sg61
V 
sg55
I1
sg65
V 
sS'trials.thisIndex'
p511
g28
(g96
S'\x00\x00\x00\x00'
tRp512
sg333
g351
sg339
Vi
sS'blocks.thisIndex'
p513
g353
sS'trials.thisRepN'
p514
I1
sg26
V
sg50
g103
sg334
g421
sg52
V 
sg20
F0.083892107009887695
sg53
V 
sg17
F0.15159106254577637
sS'blocks.thisRepN'
p515
I0
sg25
V
sg63
g104
sa(dp516
g46
g47
sg48
g49
sg16
I1
sg27
g31
sg335
Ve
sg336
Ve
sg15
S'i'
sg19
I1
sg24
V1
sg340
g344
sS'trials.thisN'
p517
I16
sg18
S'e'
sg337
I3
sg56
I2
sg57
g58
sS'trials.thisTrialN'
p518
I6
sg338
Vi
sg59
g60
sS'blocks.thisN'
p519
I0
sS'blocks.thisTrialN'
p520
I0
sg32
g12
sg33
g34
sg61
V 
sg55
I1
sg65
V 
sS'trials.thisIndex'
p521
g28
(g96
S'\x02\x00\x00\x00'
tRp522
sg333
g351
sg339
Vi
sS'blocks.thisIndex'
p523
g353
sS'trials.thisRepN'
p524
I1
sg26
V
sg50
g103
sg334
g399
sg52
V 
sg20
F0.11867284774780273
sg53
V 
sg17
F0.15294408798217773
sS'blocks.thisRepN'
p525
I0
sg25
V
sg63
g104
sa(dp526
g46
g47
sg48
g49
sg16
I1
sg27
g31
sg335
Vi
sg336
Vi
sg15
S'e'
sg19
I0
sg24
V1
sg340
g344
sS'trials.thisN'
p527
I17
sg32
g12
sg337
I4
sg56
I2
sg57
g58
sS'trials.thisTrialN'
p528
I7
sg338
Ve
sg59
g60
sS'blocks.thisN'
p529
I0
sS'blocks.thisTrialN'
p530
I0
sg33
g34
sg61
V 
sg55
I1
sg65
V 
sS'trials.thisIndex'
p531
g28
(g96
S'\x07\x00\x00\x00'
tRp532
sg333
g351
sg339
Ve
sS'blocks.thisIndex'
p533
g353
sS'trials.thisRepN'
p534
I1
sg26
V
sg50
g103
sg334
g366
sg52
V 
sg18
Nsg53
V 
sg17
F0.11715102195739746
sS'blocks.thisRepN'
p535
I0
sg25
V
sg63
g104
sa(dp536
g46
g47
sg48
g49
sg16
I1
sg27
g31
sg335
Vi
sg336
Vi
sg15
S'e'
sg19
I1
sg24
V1
sg340
g344
sS'trials.thisN'
p537
I18
sg18
S'i'
sg337
I4
sg56
I2
sg57
g58
sS'trials.thisTrialN'
p538
I8
sg338
Ve
sg59
g60
sS'blocks.thisN'
p539
I0
sS'blocks.thisTrialN'
p540
I0
sg32
g12
sg33
g34
sg61
V 
sg55
I1
sg65
V 
sS'trials.thisIndex'
p541
g28
(g96
S'\t\x00\x00\x00'
tRp542
sg333
g351
sg339
Ve
sS'blocks.thisIndex'
p543
g353
sS'trials.thisRepN'
p544
I1
sg26
V
sg50
g103
sg334
g454
sg52
V 
sg20
F0.033433198928833008
sg53
V 
sg17
F0.16784501075744629
sS'blocks.thisRepN'
p545
I0
sg25
V
sg63
g104
sa(dp546
g46
g47
sg48
g49
sg16
I1
sg27
g31
sg335
Ve
sg336
Ve
sg15
S'i'
sg19
I0
sg24
V1
sg340
g344
sS'trials.thisN'
p547
I19
sg32
g12
sg337
I3
sg56
I2
sg57
g58
sS'trials.thisTrialN'
p548
I9
sg338
Vi
sg59
g60
sS'blocks.thisN'
p549
I0
sS'blocks.thisTrialN'
p550
I0
sg33
g34
sg61
V 
sg55
I1
sg65
V 
sS'trials.thisIndex'
p551
g28
(g96
S'\x01\x00\x00\x00'
tRp552
sg333
g351
sg339
Vi
sS'blocks.thisIndex'
p553
g353
sS'trials.thisRepN'
p554
I1
sg26
V
sg50
g103
sg334
g410
sg52
V 
sg18
Nsg53
V 
sg17
F0.016806840896606445
sS'blocks.thisRepN'
p555
I0
sg25
V
sg63
g104
sa(dp556
g46
g47
sg48
g49
sg16
I1
sg27
g31
sg125
Ve
sg126
Ve
sg15
S'i'
sg19
I0
sg24
V1
sg130
g245
sS'trials.thisN'
p557
I0
sg32
g12
sg127
I1
sg56
I2
sg57
g58
sS'trials.thisTrialN'
p558
I0
sg128
Vi
sg59
g60
sS'blocks.thisN'
p559
I1
sS'blocks.thisTrialN'
p560
I1
sg33
g34
sg61
g62
sg55
I1
sg65
V 
sS'trials.thisIndex'
p561
g28
(g96
S'\x05\x00\x00\x00'
tRp562
sg121
g244
sg129
Vi
sS'blocks.thisIndex'
p563
g112
sS'trials.thisRepN'
p564
I0
sg26
V
sg50
g51
sg123
V 
sg52
V 
sg18
Nsg53
g54
sg17
F0.083927154541015625
sS'blocks.thisRepN'
p565
I0
sg25
V
sg63
g64
sa(dp566
g46
g47
sg48
g49
sg16
I1
sg27
g31
sg125
Vi
sg126
Vi
sg15
S'e'
sg19
I1
sg24
V1
sg130
g131
sS'trials.thisN'
p567
I1
sg18
S'i'
sg127
I3
sg56
I2
sg57
g58
sS'trials.thisTrialN'
p568
I1
sg128
Ve
sg59
g60
sS'blocks.thisN'
p569
I1
sS'blocks.thisTrialN'
p570
I1
sg32
g12
sg33
g34
sg61
g62
sg55
I1
sg65
V 
sS'trials.thisIndex'
p571
g28
(g96
S'\x14\x00\x00\x00'
tRp572
sg121
g122
sg129
Ve
sS'blocks.thisIndex'
p573
g112
sS'trials.thisRepN'
p574
I0
sg26
V
sg50
g51
sg123
g295
sg52
V 
sg20
F0.48298501968383789
sg53
g54
sg17
F0.50037693977355957
sS'blocks.thisRepN'
p575
I0
sg25
V
sg63
g64
sa(dp576
g46
g47
sg48
g49
sg16
I1
sg27
g31
sg125
Ve
sg126
Ve
sg15
S'i'
sg19
I0
sg24
V1
sg130
g248
sS'trials.thisN'
p577
I2
sg32
g12
sg127
I1
sg56
I2
sg57
g58
sS'trials.thisTrialN'
p578
I2
sg128
Vi
sg59
g60
sS'blocks.thisN'
p579
I1
sS'blocks.thisTrialN'
p580
I1
sg33
g34
sg61
g62
sg55
I1
sg65
V 
sS'trials.thisIndex'
p581
g28
(g96
S'\x01\x00\x00\x00'
tRp582
sg121
g244
sg129
Vi
sS'blocks.thisIndex'
p583
g112
sS'trials.thisRepN'
p584
I0
sg26
V
sg50
g51
sg123
V 
sg52
V 
sg18
Nsg53
g54
sg17
F0.01691889762878418
sS'blocks.thisRepN'
p585
I0
sg25
V
sg63
g64
sa(dp586
g46
g47
sg48
g49
sg16
I1
sg27
g31
sg125
Ve
sg126
Ve
sg15
S'i'
sg19
I1
sg24
V1
sg130
g131
sS'trials.thisN'
p587
I3
sg18
S'e'
sg127
I2
sg56
I2
sg57
g58
sS'trials.thisTrialN'
p588
I3
sg128
Vi
sg59
g60
sS'blocks.thisN'
p589
I1
sS'blocks.thisTrialN'
p590
I1
sg32
g12
sg33
g34
sg61
g62
sg55
I1
sg65
V 
sS'trials.thisIndex'
p591
g28
(g96
S'\x0f\x00\x00\x00'
tRp592
sg121
g122
sg129
Vi
sS'blocks.thisIndex'
p593
g112
sS'trials.thisRepN'
p594
I0
sg26
V
sg50
g51
sg123
g270
sg52
V 
sg20
F0.48697209358215332
sg53
g54
sg17
F0.51820707321166992
sS'blocks.thisRepN'
p595
I0
sg25
V
sg63
g64
sa(dp596
g46
g47
sg48
g49
sg16
I1
sg27
g31
sg125
Vi
sg126
Vi
sg15
S'e'
sg19
I0
sg24
V1
sg130
g131
sS'trials.thisN'
p597
I4
sg32
g12
sg127
I3
sg56
I2
sg57
g58
sS'trials.thisTrialN'
p598
I4
sg128
Ve
sg59
g60
sS'blocks.thisN'
p599
I1
sS'blocks.thisTrialN'
p600
I1
sg33
g34
sg61
g62
sg55
I1
sg65
V 
sS'trials.thisIndex'
p601
g28
(g96
S'\x19\x00\x00\x00'
tRp602
sg121
g122
sg129
Ve
sS'blocks.thisIndex'
p603
g112
sS'trials.thisRepN'
p604
I0
sg26
V
sg50
g51
sg123
g295
sg52
V 
sg18
Nsg53
g54
sg17
F0.44904208183288574
sS'blocks.thisRepN'
p605
I0
sg25
V
sg63
g64
sa(dp606
g46
g47
sg48
g49
sg16
I1
sg27
g31
sg125
Vi
sg126
Vi
sg15
S'e'
sg19
I1
sg24
V1
sg130
g131
sS'trials.thisN'
p607
I5
sg18
S'i'
sg127
I3
sg56
I2
sg57
g58
sS'trials.thisTrialN'
p608
I5
sg128
Ve
sg59
g60
sS'blocks.thisN'
p609
I1
sS'blocks.thisTrialN'
p610
I1
sg32
g12
sg33
g34
sg61
g62
sg55
I1
sg65
V 
sS'trials.thisIndex'
p611
g28
(g96
S'\x1f\x00\x00\x00'
tRp612
sg121
g122
sg129
Ve
sS'blocks.thisIndex'
p613
g112
sS'trials.thisRepN'
p614
I0
sg26
V
sg50
g51
sg123
g298
sg52
V 
sg20
F0.4506690502166748
sg53
g54
sg17
F0.88341879844665527
sS'blocks.thisRepN'
p615
I0
sg25
V
sg63
g64
sa(dp616
g46
g47
sg48
g49
sg16
I1
sg27
g31
sg125
Vi
sg126
Vi
sg15
S'e'
sg19
I1
sg24
V1
sg130
g131
sS'trials.thisN'
p617
I6
sg18
S'i'
sg127
I3
sg56
I2
sg57
g58
sS'trials.thisTrialN'
p618
I6
sg128
Ve
sg59
g60
sS'blocks.thisN'
p619
I1
sS'blocks.thisTrialN'
p620
I1
sg32
g12
sg33
g34
sg61
g62
sg55
I1
sg65
V 
sS'trials.thisIndex'
p621
g28
(g96
S'\x1d\x00\x00\x00'
tRp622
sg121
g122
sg129
Ve
sS'blocks.thisIndex'
p623
g112
sS'trials.thisRepN'
p624
I0
sg26
V
sg50
g51
sg123
g306
sg52
V 
sg20
F0.38328695297241211
sg53
g54
sg17
F0.79895901679992676
sS'blocks.thisRepN'
p625
I0
sg25
V
sg63
g64
sa(dp626
g46
g47
sg48
g49
sg16
I1
sg27
g31
sg125
Vi
sg126
Vi
sg15
S'e'
sg19
I0
sg24
V1
sg130
g131
sS'trials.thisN'
p627
I7
sg32
g12
sg127
I3
sg56
I2
sg57
g58
sS'trials.thisTrialN'
p628
I7
sg128
Ve
sg59
g60
sS'blocks.thisN'
p629
I1
sS'blocks.thisTrialN'
p630
I1
sg33
g34
sg61
g62
sg55
I1
sg65
V 
sS'trials.thisIndex'
p631
g28
(g96
S'\x15\x00\x00\x00'
tRp632
sg121
g122
sg129
Ve
sS'blocks.thisIndex'
p633
g112
sS'trials.thisRepN'
p634
I0
sg26
V
sg50
g51
sg123
g298
sg52
V 
sg18
Nsg53
g54
sg17
F0.35509204864501953
sS'blocks.thisRepN'
p635
I0
sg25
V
sg63
g64
sa(dp636
g46
g47
sg48
g49
sg16
I1
sg27
g31
sg125
Ve
sg126
Ve
sg15
S'i'
sg19
I1
sg24
V1
sg130
g245
sS'trials.thisN'
p637
I8
sg18
S'e'
sg127
I1
sg56
I2
sg57
g58
sS'trials.thisTrialN'
p638
I8
sg128
Vi
sg59
g60
sS'blocks.thisN'
p639
I1
sS'blocks.thisTrialN'
p640
I1
sg32
g12
sg33
g34
sg61
g62
sg55
I1
sg65
V 
sS'trials.thisIndex'
p641
g28
(g96
S'\x00\x00\x00\x00'
tRp642
sg121
g244
sg129
Vi
sS'blocks.thisIndex'
p643
g112
sS'trials.thisRepN'
p644
I0
sg26
V
sg50
g51
sg123
V 
sg52
V 
sg20
F1.8313140869140625
sg53
g54
sg17
F2.2656209468841553
sS'blocks.thisRepN'
p645
I0
sg25
V
sg63
g64
sa(dp646
g46
g47
sg48
g49
sg16
I1
sg27
g31
sg125
Vi
sg126
Vi
sg15
S'e'
sg19
I1
sg24
V1
sg130
g131
sS'trials.thisN'
p647
I9
sg18
S'i'
sg127
I3
sg56
I2
sg57
g58
sS'trials.thisTrialN'
p648
I9
sg128
Ve
sg59
g60
sS'blocks.thisN'
p649
I1
sS'blocks.thisTrialN'
p650
I1
sg32
g12
sg33
g34
sg61
g62
sg55
I1
sg65
V 
sS'trials.thisIndex'
p651
g28
(g96
S'\x16\x00\x00\x00'
tRp652
sg121
g122
sg129
Ve
sS'blocks.thisIndex'
p653
g112
sS'trials.thisRepN'
p654
I0
sg26
V
sg50
g51
sg123
g124
sg52
V 
sg20
F1.017488956451416
sg53
g54
sg17
F1.283329963684082
sS'blocks.thisRepN'
p655
I0
sg25
V
sg63
g64
sa(dp656
g46
g47
sg48
g49
sg16
I1
sg27
g31
sg125
Ve
sg126
Ve
sg15
S'i'
sg19
I1
sg24
V1
sg130
g131
sS'trials.thisN'
p657
I10
sg18
S'e'
sg127
I2
sg56
I2
sg57
g58
sS'trials.thisTrialN'
p658
I10
sg128
Vi
sg59
g60
sS'blocks.thisN'
p659
I1
sS'blocks.thisTrialN'
p660
I1
sg32
g12
sg33
g34
sg61
g62
sg55
I1
sg65
V 
sS'trials.thisIndex'
p661
g28
(g96
S'\x10\x00\x00\x00'
tRp662
sg121
g122
sg129
Vi
sS'blocks.thisIndex'
p663
g112
sS'trials.thisRepN'
p664
I0
sg26
V
sg50
g51
sg123
g273
sg52
V 
sg20
F0.016254186630249023
sg53
g54
sg17
F0.066763877868652344
sS'blocks.thisRepN'
p665
I0
sg25
V
sg63
g64
sa(dp666
g46
g47
sg48
g49
sg16
I1
sg27
g31
sg125
Vi
sg126
Vi
sg15
S'e'
sg19
I1
sg24
V1
sg130
g131
sS'trials.thisN'
p667
I11
sg18
S'i'
sg127
I3
sg56
I2
sg57
g58
sS'trials.thisTrialN'
p668
I11
sg128
Ve
sg59
g60
sS'blocks.thisN'
p669
I1
sS'blocks.thisTrialN'
p670
I1
sg32
g12
sg33
g34
sg61
g62
sg55
I1
sg65
V 
sS'trials.thisIndex'
p671
g28
(g96
S'"\x00\x00\x00'
tRp672
sg121
g122
sg129
Ve
sS'blocks.thisIndex'
p673
g112
sS'trials.thisRepN'
p674
I0
sg26
V
sg50
g51
sg123
g306
sg52
V 
sg20
F0.016546964645385742
sg53
g54
sg17
F0.11557984352111816
sS'blocks.thisRepN'
p675
I0
sg25
V
sg63
g64
sa(dp676
g46
g47
sg48
g49
sg16
I1
sg27
g31
sg125
Ve
sg126
Ve
sg15
S'i'
sg19
I0
sg24
V1
sg130
g131
sS'trials.thisN'
p677
I12
sg32
g12
sg127
I2
sg56
I2
sg57
g58
sS'trials.thisTrialN'
p678
I12
sg128
Vi
sg59
g60
sS'blocks.thisN'
p679
I1
sS'blocks.thisTrialN'
p680
I1
sg33
g34
sg61
g62
sg55
I1
sg65
V 
sS'trials.thisIndex'
p681
g28
(g96
S'\x13\x00\x00\x00'
tRp682
sg121
g122
sg129
Vi
sS'blocks.thisIndex'
p683
g112
sS'trials.thisRepN'
p684
I0
sg26
V
sg50
g51
sg123
g282
sg52
V 
sg18
Nsg53
g54
sg17
F0.050660133361816406
sS'blocks.thisRepN'
p685
I0
sg25
V
sg63
g64
sa(dp686
g46
g47
sg48
g49
sg16
I1
sg27
g31
sg125
Ve
sg126
Ve
sg15
S'i'
sg19
I1
sg24
V1
sg130
g257
sS'trials.thisN'
p687
I13
sg18
S'e'
sg127
I1
sg56
I2
sg57
g58
sS'trials.thisTrialN'
p688
I13
sg128
Vi
sg59
g60
sS'blocks.thisN'
p689
I1
sS'blocks.thisTrialN'
p690
I1
sg32
g12
sg33
g34
sg61
g62
sg55
I1
sg65
V 
sS'trials.thisIndex'
p691
g28
(g96
S'\x04\x00\x00\x00'
tRp692
sg121
g244
sg129
Vi
sS'blocks.thisIndex'
p693
g112
sS'trials.thisRepN'
p694
I0
sg26
V
sg50
g51
sg123
V 
sg52
V 
sg20
F0.15059685707092285
sg53
g54
sg17
F0.1512610912322998
sS'blocks.thisRepN'
p695
I0
sg25
V
sg63
g64
sa(dp696
g46
g47
sg48
g49
sg16
I1
sg27
g31
sg125
Vi
sg126
Vi
sg15
S'e'
sg19
I0
sg24
V1
sg130
g131
sS'trials.thisN'
p697
I14
sg32
g12
sg127
I3
sg56
I2
sg57
g58
sS'trials.thisTrialN'
p698
I14
sg128
Ve
sg59
g60
sS'blocks.thisN'
p699
I1
sS'blocks.thisTrialN'
p700
I1
sg33
g34
sg61
g62
sg55
I1
sg65
V 
sS'trials.thisIndex'
p701
g28
(g96
S'\x1c\x00\x00\x00'
tRp702
sg121
g122
sg129
Ve
sS'blocks.thisIndex'
p703
g112
sS'trials.thisRepN'
p704
I0
sg26
V
sg50
g51
sg123
g303
sg52
V 
sg18
Nsg53
g54
sg17
F0.015290021896362305
sS'blocks.thisRepN'
p705
I0
sg25
V
sg63
g64
sa(dp706
g46
g47
sg48
g49
sg16
I1
sg27
g31
sg125
Ve
sg126
Ve
sg15
S'i'
sg19
I1
sg24
V1
sg130
g131
sS'trials.thisN'
p707
I15
sg18
S'e'
sg127
I2
sg56
I2
sg57
g58
sS'trials.thisTrialN'
p708
I15
sg128
Vi
sg59
g60
sS'blocks.thisN'
p709
I1
sS'blocks.thisTrialN'
p710
I1
sg32
g12
sg33
g34
sg61
g62
sg55
I1
sg65
V 
sS'trials.thisIndex'
p711
g28
(g96
S'\x11\x00\x00\x00'
tRp712
sg121
g122
sg129
Vi
sS'blocks.thisIndex'
p713
g112
sS'trials.thisRepN'
p714
I0
sg26
V
sg50
g51
sg123
g276
sg52
V 
sg20
F0.018357038497924805
sg53
g54
sg17
F0.13395500183105469
sS'blocks.thisRepN'
p715
I0
sg25
V
sg63
g64
sa(dp716
g46
g47
sg48
g49
sg16
I1
sg27
g31
sg125
Ve
sg126
Ve
sg15
S'i'
sg19
I1
sg24
V1
sg130
g131
sS'trials.thisN'
p717
I16
sg18
S'e'
sg127
I2
sg56
I2
sg57
g58
sS'trials.thisTrialN'
p718
I16
sg128
Vi
sg59
g60
sS'blocks.thisN'
p719
I1
sS'blocks.thisTrialN'
p720
I1
sg32
g12
sg33
g34
sg61
g62
sg55
I1
sg65
V 
sS'trials.thisIndex'
p721
g28
(g96
S'\x0c\x00\x00\x00'
tRp722
sg121
g122
sg129
Vi
sS'blocks.thisIndex'
p723
g112
sS'trials.thisRepN'
p724
I0
sg26
V
sg50
g51
sg123
g276
sg52
V 
sg20
F0.049458026885986328
sg53
g54
sg17
F0.099798917770385742
sS'blocks.thisRepN'
p725
I0
sg25
V
sg63
g64
sa(dp726
g46
g47
sg48
g49
sg16
I1
sg27
g31
sg125
Vi
sg126
Vi
sg15
S'e'
sg19
I0
sg24
V1
sg130
g131
sS'trials.thisN'
p727
I17
sg32
g12
sg127
I3
sg56
I2
sg57
g58
sS'trials.thisTrialN'
p728
I17
sg128
Ve
sg59
g60
sS'blocks.thisN'
p729
I1
sS'blocks.thisTrialN'
p730
I1
sg33
g34
sg61
g62
sg55
I1
sg65
V 
sS'trials.thisIndex'
p731
g28
(g96
S'!\x00\x00\x00'
tRp732
sg121
g122
sg129
Ve
sS'blocks.thisIndex'
p733
g112
sS'trials.thisRepN'
p734
I0
sg26
V
sg50
g51
sg123
g303
sg52
V 
sg18
Nsg53
g54
sg17
F0.10094499588012695
sS'blocks.thisRepN'
p735
I0
sg25
V
sg63
g64
sa(dp736
g46
g47
sg48
g49
sg16
I1
sg27
g31
sg125
Ve
sg126
Ve
sg15
S'i'
sg19
I1
sg24
V1
sg130
g248
sS'trials.thisN'
p737
I18
sg18
S'e'
sg127
I1
sg56
I2
sg57
g58
sS'trials.thisTrialN'
p738
I18
sg128
Vi
sg59
g60
sS'blocks.thisN'
p739
I1
sS'blocks.thisTrialN'
p740
I1
sg32
g12
sg33
g34
sg61
g62
sg55
I1
sg65
V 
sS'trials.thisIndex'
p741
g28
(g96
S'\x06\x00\x00\x00'
tRp742
sg121
g244
sg129
Vi
sS'blocks.thisIndex'
p743
g112
sS'trials.thisRepN'
p744
I0
sg26
V
sg50
g51
sg123
V 
sg52
V 
sg20
F0.016777992248535156
sg53
g54
sg17
F0.017099142074584961
sS'blocks.thisRepN'
p745
I0
sg25
V
sg63
g64
sa(dp746
g46
g47
sg48
g49
sg16
I1
sg27
g31
sg125
Vi
sg126
Vi
sg15
S'e'
sg19
I1
sg24
V1
sg130
g131
sS'trials.thisN'
p747
I19
sg18
S'i'
sg127
I3
sg56
I2
sg57
g58
sS'trials.thisTrialN'
p748
I19
sg128
Ve
sg59
g60
sS'blocks.thisN'
p749
I1
sS'blocks.thisTrialN'
p750
I1
sg32
g12
sg33
g34
sg61
g62
sg55
I1
sg65
V 
sS'trials.thisIndex'
p751
g28
(g96
S'\x18\x00\x00\x00'
tRp752
sg121
g122
sg129
Ve
sS'blocks.thisIndex'
p753
g112
sS'trials.thisRepN'
p754
I0
sg26
V
sg50
g51
sg123
g306
sg52
V 
sg20
F0.033862113952636719
sg53
g54
sg17
F0.16681194305419922
sS'blocks.thisRepN'
p755
I0
sg25
V
sg63
g64
sa(dp756
g46
g47
sg48
g49
sg16
I1
sg27
g31
sg125
Ve
sg126
Ve
sg15
S'i'
sg19
I1
sg24
V1
sg130
g251
sS'trials.thisN'
p757
I20
sg18
S'e'
sg127
I1
sg56
I2
sg57
g58
sS'trials.thisTrialN'
p758
I20
sg128
Vi
sg59
g60
sS'blocks.thisN'
p759
I1
sS'blocks.thisTrialN'
p760
I1
sg32
g12
sg33
g34
sg61
g62
sg55
I1
sg65
V 
sS'trials.thisIndex'
p761
g28
(g96
S'\x02\x00\x00\x00'
tRp762
sg121
g244
sg129
Vi
sS'blocks.thisIndex'
p763
g112
sS'trials.thisRepN'
p764
I0
sg26
V
sg50
g51
sg123
V 
sg52
V 
sg20
F0.01810002326965332
sg53
g54
sg17
F0.18559908866882324
sS'blocks.thisRepN'
p765
I0
sg25
V
sg63
g64
sa(dp766
g46
g47
sg48
g49
sg16
I1
sg27
g31
sg125
Ve
sg126
Ve
sg15
S'i'
sg19
I1
sg24
V1
sg130
g131
sS'trials.thisN'
p767
I21
sg18
S'e'
sg127
I2
sg56
I2
sg57
g58
sS'trials.thisTrialN'
p768
I21
sg128
Vi
sg59
g60
sS'blocks.thisN'
p769
I1
sS'blocks.thisTrialN'
p770
I1
sg32
g12
sg33
g34
sg61
g62
sg55
I1
sg65
V 
sS'trials.thisIndex'
p771
g28
(g96
S'\r\x00\x00\x00'
tRp772
sg121
g122
sg129
Vi
sS'blocks.thisIndex'
p773
g112
sS'trials.thisRepN'
p774
I0
sg26
V
sg50
g51
sg123
g279
sg52
V 
sg20
F0.050891876220703125
sg53
g54
sg17
F0.11765503883361816
sS'blocks.thisRepN'
p775
I0
sg25
V
sg63
g64
sa(dp776
g46
g47
sg48
g49
sg16
I1
sg27
g31
sg125
Vi
sg126
Vi
sg15
S'e'
sg19
I1
sg24
V1
sg130
g131
sS'trials.thisN'
p777
I22
sg18
S'i'
sg127
I3
sg56
I2
sg57
g58
sS'trials.thisTrialN'
p778
I22
sg128
Ve
sg59
g60
sS'blocks.thisN'
p779
I1
sS'blocks.thisTrialN'
p780
I1
sg32
g12
sg33
g34
sg61
g62
sg55
I1
sg65
V 
sS'trials.thisIndex'
p781
g28
(g96
S'\x1e\x00\x00\x00'
tRp782
sg121
g122
sg129
Ve
sS'blocks.thisIndex'
p783
g112
sS'trials.thisRepN'
p784
I0
sg26
V
sg50
g51
sg123
g295
sg52
V 
sg20
F0.016958951950073242
sg53
g54
sg17
F0.083993911743164062
sS'blocks.thisRepN'
p785
I0
sg25
V
sg63
g64
sa(dp786
g46
g47
sg48
g49
sg16
I1
sg27
g31
sg125
Ve
sg126
Ve
sg15
S'i'
sg19
I1
sg24
V1
sg130
g257
sS'trials.thisN'
p787
I23
sg18
S'e'
sg127
I1
sg56
I2
sg57
g58
sS'trials.thisTrialN'
p788
I23
sg128
Vi
sg59
g60
sS'blocks.thisN'
p789
I1
sS'blocks.thisTrialN'
p790
I1
sg32
g12
sg33
g34
sg61
g62
sg55
I1
sg65
V 
sS'trials.thisIndex'
p791
g28
(g96
S'\t\x00\x00\x00'
tRp792
sg121
g244
sg129
Vi
sS'blocks.thisIndex'
p793
g112
sS'trials.thisRepN'
p794
I0
sg26
V
sg50
g51
sg123
V 
sg52
V 
sg20
F0.016355991363525391
sg53
g54
sg17
F0.050693035125732422
sS'blocks.thisRepN'
p795
I0
sg25
V
sg63
g64
sa(dp796
g46
g47
sg48
g49
sg16
I1
sg27
g31
sg125
Vi
sg126
Vi
sg15
S'e'
sg19
I1
sg24
V1
sg130
g131
sS'trials.thisN'
p797
I24
sg18
S'i'
sg127
I3
sg56
I2
sg57
g58
sS'trials.thisTrialN'
p798
I24
sg128
Ve
sg59
g60
sS'blocks.thisN'
p799
I1
sS'blocks.thisTrialN'
p800
I1
sg32
g12
sg33
g34
sg61
g62
sg55
I1
sg65
V 
sS'trials.thisIndex'
p801
g28
(g96
S'\x1a\x00\x00\x00'
tRp802
sg121
g122
sg129
Ve
sS'blocks.thisIndex'
p803
g112
sS'trials.thisRepN'
p804
I0
sg26
V
sg50
g51
sg123
g298
sg52
V 
sg20
F0.13449883460998535
sg53
g54
sg17
F0.15137100219726562
sS'blocks.thisRepN'
p805
I0
sg25
V
sg63
g64
sasS'loops'
p806
(lp807
g38
ag1
(g37
g3
NtRp808
(dp809
g40
V<PsychoPy2experiment version="1.82.01" encoding="utf-8">\u000a  <Settings>\u000a    <Param name="Show mouse" val="False" valType="bool" updates="None"/>\u000a    <Param name="Data filename" val="'data/%s_%s' %(expInfo['participant'], expName)" valType="code" updates="None"/>\u000a    <Param name="Monitor" val="testMonitor" valType="str" updates="None"/>\u000a    <Param name="Enable Escape" val="True" valType="bool" updates="None"/>\u000a    <Param name="color" val="black" valType="str" updates="None"/>\u000a    <Param name="Window size (pixels)" val="[1366, 768]" valType="code" updates="None"/>\u000a    <Param name="Full-screen window" val="True" valType="bool" updates="None"/>\u000a    <Param name="colorSpace" val="rgb" valType="str" updates="None"/>\u000a    <Param name="Experiment info" val="{u'gender': u'', u'age': u'', u'participant': u''}" valType="code" updates="None"/>\u000a    <Param name="Save csv file" val="False" valType="bool" updates="None"/>\u000a    <Param name="Show info dlg" val="True" valType="bool" updates="None"/>\u000a    <Param name="Save wide csv file" val="True" valType="bool" updates="None"/>\u000a    <Param name="Save psydat file" val="True" valType="bool" updates="None"/>\u000a    <Param name="expName" val="SCIAT IAT and likerts" valType="str" updates="None"/>\u000a    <Param name="logging level" val="warning" valType="code" updates="None"/>\u000a    <Param name="blendMode" val="avg" valType="str" updates="None"/>\u000a    <Param name="Save excel file" val="False" valType="bool" updates="None"/>\u000a    <Param name="Units" val="use prefs" valType="str" updates="None"/>\u000a    <Param name="Save log file" val="False" valType="bool" updates="None"/>\u000a    <Param name="Screen" val="1" valType="num" updates="None"/>\u000a  </Settings>\u000a  <Routines>\u000a    <Routine name="trial">\u000a      <CodeComponent name="code">\u000a        <Param name="Begin Experiment" val="msg1=&quot;&quot;&#10;&#10;# dertermine the condition based on the modulo of the participant code &#10;# i.e., if the remained of the participant code divided by 4 = 1, run condition 1, etc.&#10;participant = int(expInfo['participant'])&#10;if (participant % 2) == 1: &#10;    taskFile = &quot;blocks_A.xlsx&quot;&#10;elif (participant % 2) == 0:&#10;    taskFile = &quot;blocks_B.xlsx&quot;&#10;else:&#10;    print &quot;****condition file error****&quot;" valType="extendedCode" updates="constant"/>\u000a        <Param name="name" val="code" valType="code" updates="None"/>\u000a        <Param name="Begin Routine" val="" valType="extendedCode" updates="constant"/>\u000a        <Param name="End Routine" val="" valType="extendedCode" updates="constant"/>\u000a        <Param name="End Experiment" val="" valType="extendedCode" updates="constant"/>\u000a        <Param name="Each Frame" val="if len(feedbackResponse.keys)&lt;1:&#10;    msg1=&quot;&quot;&#10;else:&#10;    msg1=&quot;X&quot;" valType="extendedCode" updates="constant"/>\u000a      </CodeComponent>\u000a      <ImageComponent name="stimulusImage">\u000a        <Param name="opacity" val="1" valType="code" updates="constant"/>\u000a        <Param name="flipVert" val="False" valType="bool" updates="constant"/>\u000a        <Param name="colorSpace" val="rgb" valType="str" updates="constant"/>\u000a        <Param name="name" val="stimulusImage" valType="code" updates="None"/>\u000a        <Param name="color" val="$[1,1,1]" valType="str" updates="constant"/>\u000a        <Param name="stopVal" val="" valType="code" updates="constant"/>\u000a        <Param name="durationEstim" val="" valType="code" updates="None"/>\u000a        <Param name="mask" val="None" valType="str" updates="constant"/>\u000a        <Param name="pos" val="[0, 0]" valType="code" updates="constant"/>\u000a        <Param name="interpolate" val="linear" valType="str" updates="constant"/>\u000a        <Param name="startEstim" val="" valType="code" updates="None"/>\u000a        <Param name="units" val="from exp settings" valType="str" updates="None"/>\u000a        <Param name="texture resolution" val="128" valType="code" updates="constant"/>\u000a        <Param name="startType" val="time (s)" valType="str" updates="None"/>\u000a        <Param name="ori" val="0" valType="code" updates="constant"/>\u000a        <Param name="stopType" val="duration (s)" valType="str" updates="None"/>\u000a        <Param name="startVal" val="0.3" valType="code" updates="None"/>\u000a        <Param name="flipHoriz" val="False" valType="bool" updates="constant"/>\u000a        <Param name="image" val="$imageStimulus" valType="str" updates="set every repeat"/>\u000a        <Param name="size" val=".4" valType="code" updates="constant"/>\u000a      </ImageComponent>\u000a      <TextComponent name="stimulusBox">\u000a        <Param name="opacity" val="1" valType="code" updates="constant"/>\u000a        <Param name="colorSpace" val="rgb" valType="str" updates="constant"/>\u000a        <Param name="name" val="stimulusBox" valType="code" updates="None"/>\u000a        <Param name="wrapWidth" val="" valType="code" updates="constant"/>\u000a        <Param name="color" val="$stimulusColour" valType="str" updates="set every repeat"/>\u000a        <Param name="text" val="$stimulus" valType="str" updates="set every repeat"/>\u000a        <Param name="stopVal" val="" valType="code" updates="constant"/>\u000a        <Param name="durationEstim" val="" valType="code" updates="None"/>\u000a        <Param name="pos" val="[0, 0]" valType="code" updates="constant"/>\u000a        <Param name="flip" val="" valType="str" updates="constant"/>\u000a        <Param name="startEstim" val="" valType="code" updates="None"/>\u000a        <Param name="units" val="from exp settings" valType="str" updates="None"/>\u000a        <Param name="startType" val="time (s)" valType="str" updates="None"/>\u000a        <Param name="ori" val="0" valType="code" updates="constant"/>\u000a        <Param name="stopType" val="duration (s)" valType="str" updates="None"/>\u000a        <Param name="startVal" val="0.3" valType="code" updates="None"/>\u000a        <Param name="font" val="Arial" valType="str" updates="constant"/>\u000a        <Param name="letterHeight" val="0.1" valType="code" updates="constant"/>\u000a      </TextComponent>\u000a      <KeyboardComponent name="requiredResponse">\u000a        <Param name="correctAns" val="$requiredKey" valType="str" updates="constant"/>\u000a        <Param name="storeCorrect" val="True" valType="bool" updates="constant"/>\u000a        <Param name="name" val="requiredResponse" valType="code" updates="None"/>\u000a        <Param name="stopVal" val="" valType="code" updates="constant"/>\u000a        <Param name="durationEstim" val="" valType="code" updates="None"/>\u000a        <Param name="forceEndRoutine" val="True" valType="bool" updates="constant"/>\u000a        <Param name="startEstim" val="" valType="code" updates="None"/>\u000a        <Param name="discard previous" val="True" valType="bool" updates="constant"/>\u000a        <Param name="startType" val="time (s)" valType="str" updates="None"/>\u000a        <Param name="allowedKeys" val="requiredAllowed" valType="code" updates="set every repeat"/>\u000a        <Param name="stopType" val="duration (s)" valType="str" updates="None"/>\u000a        <Param name="startVal" val="0.3" valType="code" updates="None"/>\u000a        <Param name="store" val="first key" valType="str" updates="constant"/>\u000a      </KeyboardComponent>\u000a      <KeyboardComponent name="feedbackResponse">\u000a        <Param name="correctAns" val="$feedbackKey" valType="str" updates="constant"/>\u000a        <Param name="storeCorrect" val="True" valType="bool" updates="constant"/>\u000a        <Param name="name" val="feedbackResponse" valType="code" updates="None"/>\u000a        <Param name="stopVal" val="" valType="code" updates="constant"/>\u000a        <Param name="durationEstim" val="" valType="code" updates="None"/>\u000a        <Param name="forceEndRoutine" val="False" valType="bool" updates="constant"/>\u000a        <Param name="startEstim" val="" valType="code" updates="None"/>\u000a        <Param name="discard previous" val="True" valType="bool" updates="constant"/>\u000a        <Param name="startType" val="time (s)" valType="str" updates="None"/>\u000a        <Param name="allowedKeys" val="feedbackAllowed" valType="code" updates="set every repeat"/>\u000a        <Param name="stopType" val="duration (s)" valType="str" updates="None"/>\u000a        <Param name="startVal" val="0.3" valType="code" updates="None"/>\u000a        <Param name="store" val="first key" valType="str" updates="constant"/>\u000a      </KeyboardComponent>\u000a      <TextComponent name="accuracyFeedback">\u000a        <Param name="opacity" val="1" valType="code" updates="constant"/>\u000a        <Param name="colorSpace" val="rgb" valType="str" updates="constant"/>\u000a        <Param name="name" val="accuracyFeedback" valType="code" updates="None"/>\u000a        <Param name="wrapWidth" val="" valType="code" updates="constant"/>\u000a        <Param name="color" val="red" valType="str" updates="constant"/>\u000a        <Param name="text" val="$msg1" valType="str" updates="set every frame"/>\u000a        <Param name="stopVal" val="" valType="code" updates="constant"/>\u000a        <Param name="durationEstim" val="" valType="code" updates="None"/>\u000a        <Param name="pos" val="[0, -.5]" valType="code" updates="constant"/>\u000a        <Param name="flip" val="" valType="str" updates="constant"/>\u000a        <Param name="startEstim" val="" valType="code" updates="None"/>\u000a        <Param name="units" val="from exp settings" valType="str" updates="None"/>\u000a        <Param name="startType" val="time (s)" valType="str" updates="None"/>\u000a        <Param name="ori" val="0" valType="code" updates="constant"/>\u000a        <Param name="stopType" val="duration (s)" valType="str" updates="None"/>\u000a        <Param name="startVal" val="0.3" valType="code" updates="None"/>\u000a        <Param name="font" val="Arial" valType="str" updates="constant"/>\u000a        <Param name="letterHeight" val="0.2" valType="code" updates="constant"/>\u000a      </TextComponent>\u000a      <TextComponent name="target1box">\u000a        <Param name="opacity" val="1" valType="code" updates="constant"/>\u000a        <Param name="colorSpace" val="rgb" valType="str" updates="constant"/>\u000a        <Param name="name" val="target1box" valType="code" updates="None"/>\u000a        <Param name="wrapWidth" val="" valType="code" updates="constant"/>\u000a        <Param name="color" val="$colourA" valType="str" updates="set every repeat"/>\u000a        <Param name="text" val="$target1" valType="str" updates="set every repeat"/>\u000a        <Param name="stopVal" val="" valType="code" updates="constant"/>\u000a        <Param name="durationEstim" val="" valType="code" updates="None"/>\u000a        <Param name="pos" val="[-.6, .85]" valType="code" updates="constant"/>\u000a        <Param name="flip" val="" valType="str" updates="constant"/>\u000a        <Param name="startEstim" val="" valType="code" updates="None"/>\u000a        <Param name="units" val="from exp settings" valType="str" updates="None"/>\u000a        <Param name="startType" val="time (s)" valType="str" updates="None"/>\u000a        <Param name="ori" val="0" valType="code" updates="constant"/>\u000a        <Param name="stopType" val="duration (s)" valType="str" updates="None"/>\u000a        <Param name="startVal" val="0.0" valType="code" updates="None"/>\u000a        <Param name="font" val="Arial" valType="str" updates="constant"/>\u000a        <Param name="letterHeight" val="0.1" valType="code" updates="constant"/>\u000a      </TextComponent>\u000a      <TextComponent name="target2box">\u000a        <Param name="opacity" val="1" valType="code" updates="constant"/>\u000a        <Param name="colorSpace" val="rgb" valType="str" updates="constant"/>\u000a        <Param name="name" val="target2box" valType="code" updates="None"/>\u000a        <Param name="wrapWidth" val="" valType="code" updates="constant"/>\u000a        <Param name="color" val="$colourA" valType="str" updates="set every repeat"/>\u000a        <Param name="text" val="$target2" valType="str" updates="set every repeat"/>\u000a        <Param name="stopVal" val="" valType="code" updates="constant"/>\u000a        <Param name="durationEstim" val="" valType="code" updates="None"/>\u000a        <Param name="pos" val="[0.6, 0.85]" valType="code" updates="constant"/>\u000a        <Param name="flip" val="" valType="str" updates="constant"/>\u000a        <Param name="startEstim" val="" valType="code" updates="None"/>\u000a        <Param name="units" val="from exp settings" valType="str" updates="None"/>\u000a        <Param name="startType" val="time (s)" valType="str" updates="None"/>\u000a        <Param name="ori" val="0" valType="code" updates="constant"/>\u000a        <Param name="stopType" val="duration (s)" valType="str" updates="None"/>\u000a        <Param name="startVal" val="0.0" valType="code" updates="None"/>\u000a        <Param name="font" val="Arial" valType="str" updates="constant"/>\u000a        <Param name="letterHeight" val="0.1" valType="code" updates="constant"/>\u000a      </TextComponent>\u000a      <TextComponent name="attribute1box">\u000a        <Param name="opacity" val="1" valType="code" updates="constant"/>\u000a        <Param name="colorSpace" val="rgb" valType="str" updates="constant"/>\u000a        <Param name="name" val="attribute1box" valType="code" updates="None"/>\u000a        <Param name="wrapWidth" val="" valType="code" updates="constant"/>\u000a        <Param name="color" val="$colourB" valType="str" updates="set every repeat"/>\u000a        <Param name="text" val="$attribute1&#10;" valType="str" updates="set every repeat"/>\u000a        <Param name="stopVal" val="" valType="code" updates="constant"/>\u000a        <Param name="durationEstim" val="" valType="code" updates="None"/>\u000a        <Param name="pos" val="[-.6, 0.55]" valType="code" updates="constant"/>\u000a        <Param name="flip" val="" valType="str" updates="constant"/>\u000a        <Param name="startEstim" val="" valType="code" updates="None"/>\u000a        <Param name="units" val="from exp settings" valType="str" updates="None"/>\u000a        <Param name="startType" val="time (s)" valType="str" updates="None"/>\u000a        <Param name="ori" val="0" valType="code" updates="constant"/>\u000a        <Param name="stopType" val="duration (s)" valType="str" updates="None"/>\u000a        <Param name="startVal" val="0.0" valType="code" updates="None"/>\u000a        <Param name="font" val="Arial" valType="str" updates="constant"/>\u000a        <Param name="letterHeight" val="0.1" valType="code" updates="constant"/>\u000a      </TextComponent>\u000a      <TextComponent name="attribute2box">\u000a        <Param name="opacity" val="1" valType="code" updates="constant"/>\u000a        <Param name="colorSpace" val="rgb" valType="str" updates="constant"/>\u000a        <Param name="name" val="attribute2box" valType="code" updates="None"/>\u000a        <Param name="wrapWidth" val="" valType="code" updates="constant"/>\u000a        <Param name="color" val="$colourB" valType="str" updates="set every repeat"/>\u000a        <Param name="text" val="$attribute2" valType="str" updates="set every repeat"/>\u000a        <Param name="stopVal" val="" valType="code" updates="constant"/>\u000a        <Param name="durationEstim" val="" valType="code" updates="None"/>\u000a        <Param name="pos" val="[0.6, 0.55]" valType="code" updates="constant"/>\u000a        <Param name="flip" val="" valType="str" updates="constant"/>\u000a        <Param name="startEstim" val="" valType="code" updates="None"/>\u000a        <Param name="units" val="from exp settings" valType="str" updates="None"/>\u000a        <Param name="startType" val="time (s)" valType="str" updates="None"/>\u000a        <Param name="ori" val="0" valType="code" updates="constant"/>\u000a        <Param name="stopType" val="duration (s)" valType="str" updates="None"/>\u000a        <Param name="startVal" val="0.0" valType="code" updates="None"/>\u000a        <Param name="font" val="Arial" valType="str" updates="constant"/>\u000a        <Param name="letterHeight" val="0.1" valType="code" updates="constant"/>\u000a      </TextComponent>\u000a      <TextComponent name="orLeftBox">\u000a        <Param name="opacity" val="1" valType="code" updates="constant"/>\u000a        <Param name="colorSpace" val="rgb" valType="str" updates="constant"/>\u000a        <Param name="name" val="orLeftBox" valType="code" updates="None"/>\u000a        <Param name="wrapWidth" val="" valType="code" updates="constant"/>\u000a        <Param name="color" val="$colourA" valType="str" updates="set every repeat"/>\u000a        <Param name="text" val="$orStimulusLeft" valType="str" updates="set every repeat"/>\u000a        <Param name="stopVal" val="" valType="code" updates="constant"/>\u000a        <Param name="durationEstim" val="" valType="code" updates="None"/>\u000a        <Param name="pos" val="[-.6, .7]" valType="code" updates="constant"/>\u000a        <Param name="flip" val="" valType="str" updates="constant"/>\u000a        <Param name="startEstim" val="" valType="code" updates="None"/>\u000a        <Param name="units" val="from exp settings" valType="str" updates="None"/>\u000a        <Param name="startType" val="time (s)" valType="str" updates="None"/>\u000a        <Param name="ori" val="0" valType="code" updates="constant"/>\u000a        <Param name="stopType" val="duration (s)" valType="str" updates="None"/>\u000a        <Param name="startVal" val="0.0" valType="code" updates="None"/>\u000a        <Param name="font" val="Arial" valType="str" updates="constant"/>\u000a        <Param name="letterHeight" val="0.1" valType="code" updates="constant"/>\u000a      </TextComponent>\u000a      <TextComponent name="orRightBox">\u000a        <Param name="opacity" val="1" valType="code" updates="constant"/>\u000a        <Param name="colorSpace" val="rgb" valType="str" updates="constant"/>\u000a        <Param name="name" val="orRightBox" valType="code" updates="None"/>\u000a        <Param name="wrapWidth" val="" valType="code" updates="constant"/>\u000a        <Param name="color" val="$colourA" valType="str" updates="set every repeat"/>\u000a        <Param name="text" val="$orStimulusRight" valType="str" updates="set every repeat"/>\u000a        <Param name="stopVal" val="" valType="code" updates="constant"/>\u000a        <Param name="durationEstim" val="" valType="code" updates="None"/>\u000a        <Param name="pos" val="[.6, .7]" valType="code" updates="constant"/>\u000a        <Param name="flip" val="" valType="str" updates="constant"/>\u000a        <Param name="startEstim" val="" valType="code" updates="None"/>\u000a        <Param name="units" val="from exp settings" valType="str" updates="None"/>\u000a        <Param name="startType" val="time (s)" valType="str" updates="None"/>\u000a        <Param name="ori" val="0" valType="code" updates="constant"/>\u000a        <Param name="stopType" val="duration (s)" valType="str" updates="None"/>\u000a        <Param name="startVal" val="0.0" valType="code" updates="None"/>\u000a        <Param name="font" val="Arial" valType="str" updates="constant"/>\u000a        <Param name="letterHeight" val="0.1" valType="code" updates="constant"/>\u000a      </TextComponent>\u000a    </Routine>\u000a    <Routine name="end">\u000a      <TextComponent name="text">\u000a        <Param name="opacity" val="1" valType="code" updates="constant"/>\u000a        <Param name="colorSpace" val="rgb" valType="str" updates="constant"/>\u000a        <Param name="name" val="text" valType="code" updates="None"/>\u000a        <Param name="wrapWidth" val="" valType="code" updates="constant"/>\u000a        <Param name="color" val="white" valType="str" updates="constant"/>\u000a        <Param name="text" val="End of experiment" valType="str" updates="constant"/>\u000a        <Param name="stopVal" val="2" valType="code" updates="constant"/>\u000a        <Param name="durationEstim" val="" valType="code" updates="None"/>\u000a        <Param name="pos" val="[0, 0]" valType="code" updates="constant"/>\u000a        <Param name="flip" val="" valType="str" updates="constant"/>\u000a        <Param name="startEstim" val="" valType="code" updates="None"/>\u000a        <Param name="units" val="from exp settings" valType="str" updates="None"/>\u000a        <Param name="startType" val="time (s)" valType="str" updates="None"/>\u000a        <Param name="ori" val="0" valType="code" updates="constant"/>\u000a        <Param name="stopType" val="duration (s)" valType="str" updates="None"/>\u000a        <Param name="startVal" val="1" valType="code" updates="None"/>\u000a        <Param name="font" val="Arial" valType="str" updates="constant"/>\u000a        <Param name="letterHeight" val="0.1" valType="code" updates="constant"/>\u000a      </TextComponent>\u000a    </Routine>\u000a    <Routine name="instructions">\u000a      <TextComponent name="instructionsBox">\u000a        <Param name="opacity" val="1" valType="code" updates="constant"/>\u000a        <Param name="colorSpace" val="rgb" valType="str" updates="constant"/>\u000a        <Param name="name" val="instructionsBox" valType="code" updates="None"/>\u000a        <Param name="wrapWidth" val="" valType="code" updates="constant"/>\u000a        <Param name="color" val="$colourA" valType="str" updates="set every repeat"/>\u000a        <Param name="text" val="$instruction" valType="str" updates="set every repeat"/>\u000a        <Param name="stopVal" val="" valType="code" updates="constant"/>\u000a        <Param name="durationEstim" val="" valType="code" updates="None"/>\u000a        <Param name="pos" val="[0, -.15]" valType="code" updates="constant"/>\u000a        <Param name="flip" val="" valType="str" updates="constant"/>\u000a        <Param name="startEstim" val="" valType="code" updates="None"/>\u000a        <Param name="units" val="from exp settings" valType="str" updates="None"/>\u000a        <Param name="startType" val="time (s)" valType="str" updates="None"/>\u000a        <Param name="ori" val="0" valType="code" updates="constant"/>\u000a        <Param name="stopType" val="duration (s)" valType="str" updates="None"/>\u000a        <Param name="startVal" val="1" valType="code" updates="None"/>\u000a        <Param name="font" val="Arial" valType="str" updates="constant"/>\u000a        <Param name="letterHeight" val="0.05" valType="code" updates="constant"/>\u000a      </TextComponent>\u000a      <KeyboardComponent name="responseContinue">\u000a        <Param name="correctAns" val="$requiredResponse" valType="str" updates="constant"/>\u000a        <Param name="storeCorrect" val="False" valType="bool" updates="constant"/>\u000a        <Param name="name" val="responseContinue" valType="code" updates="None"/>\u000a        <Param name="stopVal" val="" valType="code" updates="constant"/>\u000a        <Param name="durationEstim" val="" valType="code" updates="None"/>\u000a        <Param name="forceEndRoutine" val="True" valType="bool" updates="constant"/>\u000a        <Param name="startEstim" val="" valType="code" updates="None"/>\u000a        <Param name="discard previous" val="True" valType="bool" updates="constant"/>\u000a        <Param name="startType" val="time (s)" valType="str" updates="None"/>\u000a        <Param name="allowedKeys" val="'e', 'i'" valType="code" updates="constant"/>\u000a        <Param name="stopType" val="duration (s)" valType="str" updates="None"/>\u000a        <Param name="startVal" val="1.5" valType="code" updates="None"/>\u000a        <Param name="store" val="nothing" valType="str" updates="constant"/>\u000a      </KeyboardComponent>\u000a      <TextComponent name="target1box_inst">\u000a        <Param name="opacity" val="1" valType="code" updates="constant"/>\u000a        <Param name="colorSpace" val="rgb" valType="str" updates="constant"/>\u000a        <Param name="name" val="target1box_inst" valType="code" updates="None"/>\u000a        <Param name="wrapWidth" val="" valType="code" updates="constant"/>\u000a        <Param name="color" val="$colourA" valType="str" updates="set every repeat"/>\u000a        <Param name="text" val="$target1" valType="str" updates="set every repeat"/>\u000a        <Param name="stopVal" val="" valType="code" updates="constant"/>\u000a        <Param name="durationEstim" val="" valType="code" updates="None"/>\u000a        <Param name="pos" val="[-.6, .85]" valType="code" updates="constant"/>\u000a        <Param name="flip" val="" valType="str" updates="constant"/>\u000a        <Param name="startEstim" val="" valType="code" updates="None"/>\u000a        <Param name="units" val="from exp settings" valType="str" updates="None"/>\u000a        <Param name="startType" val="time (s)" valType="str" updates="None"/>\u000a        <Param name="ori" val="0" valType="code" updates="constant"/>\u000a        <Param name="stopType" val="duration (s)" valType="str" updates="None"/>\u000a        <Param name="startVal" val="1" valType="code" updates="None"/>\u000a        <Param name="font" val="Arial" valType="str" updates="constant"/>\u000a        <Param name="letterHeight" val="0.1" valType="code" updates="constant"/>\u000a      </TextComponent>\u000a      <TextComponent name="target2box_inst">\u000a        <Param name="opacity" val="1" valType="code" updates="constant"/>\u000a        <Param name="colorSpace" val="rgb" valType="str" updates="constant"/>\u000a        <Param name="name" val="target2box_inst" valType="code" updates="None"/>\u000a        <Param name="wrapWidth" val="" valType="code" updates="constant"/>\u000a        <Param name="color" val="$colourA" valType="str" updates="set every repeat"/>\u000a        <Param name="text" val="$target2" valType="str" updates="set every repeat"/>\u000a        <Param name="stopVal" val="" valType="code" updates="constant"/>\u000a        <Param name="durationEstim" val="" valType="code" updates="None"/>\u000a        <Param name="pos" val="[0.6, 0.85]" valType="code" updates="constant"/>\u000a        <Param name="flip" val="" valType="str" updates="constant"/>\u000a        <Param name="startEstim" val="" valType="code" updates="None"/>\u000a        <Param name="units" val="from exp settings" valType="str" updates="None"/>\u000a        <Param name="startType" val="time (s)" valType="str" updates="None"/>\u000a        <Param name="ori" val="0" valType="code" updates="constant"/>\u000a        <Param name="stopType" val="duration (s)" valType="str" updates="None"/>\u000a        <Param name="startVal" val="1" valType="code" updates="None"/>\u000a        <Param name="font" val="Arial" valType="str" updates="constant"/>\u000a        <Param name="letterHeight" val="0.1" valType="code" updates="constant"/>\u000a      </TextComponent>\u000a      <TextComponent name="attribute1box_inst">\u000a        <Param name="opacity" val="1" valType="code" updates="constant"/>\u000a        <Param name="colorSpace" val="rgb" valType="str" updates="constant"/>\u000a        <Param name="name" val="attribute1box_inst" valType="code" updates="None"/>\u000a        <Param name="wrapWidth" val="" valType="code" updates="constant"/>\u000a        <Param name="color" val="$colourB" valType="str" updates="set every repeat"/>\u000a        <Param name="text" val="$attribute1" valType="str" updates="set every repeat"/>\u000a        <Param name="stopVal" val="" valType="code" updates="constant"/>\u000a        <Param name="durationEstim" val="" valType="code" updates="None"/>\u000a        <Param name="pos" val="[-.6, 0.55]" valType="code" updates="constant"/>\u000a        <Param name="flip" val="" valType="str" updates="constant"/>\u000a        <Param name="startEstim" val="" valType="code" updates="None"/>\u000a        <Param name="units" val="from exp settings" valType="str" updates="None"/>\u000a        <Param name="startType" val="time (s)" valType="str" updates="None"/>\u000a        <Param name="ori" val="0" valType="code" updates="constant"/>\u000a        <Param name="stopType" val="duration (s)" valType="str" updates="None"/>\u000a        <Param name="startVal" val="1" valType="code" updates="None"/>\u000a        <Param name="font" val="Arial" valType="str" updates="constant"/>\u000a        <Param name="letterHeight" val="0.1" valType="code" updates="constant"/>\u000a      </TextComponent>\u000a      <TextComponent name="attribute2box_inst">\u000a        <Param name="opacity" val="1" valType="code" updates="constant"/>\u000a        <Param name="colorSpace" val="rgb" valType="str" updates="constant"/>\u000a        <Param name="name" val="attribute2box_inst" valType="code" updates="None"/>\u000a        <Param name="wrapWidth" val="" valType="code" updates="constant"/>\u000a        <Param name="color" val="$colourB" valType="str" updates="set every repeat"/>\u000a        <Param name="text" val="$attribute2" valType="str" updates="set every repeat"/>\u000a        <Param name="stopVal" val="" valType="code" updates="constant"/>\u000a        <Param name="durationEstim" val="" valType="code" updates="None"/>\u000a        <Param name="pos" val="[0.6, 0.55]" valType="code" updates="constant"/>\u000a        <Param name="flip" val="" valType="str" updates="constant"/>\u000a        <Param name="startEstim" val="" valType="code" updates="None"/>\u000a        <Param name="units" val="from exp settings" valType="str" updates="None"/>\u000a        <Param name="startType" val="time (s)" valType="str" updates="None"/>\u000a        <Param name="ori" val="0" valType="code" updates="constant"/>\u000a        <Param name="stopType" val="duration (s)" valType="str" updates="None"/>\u000a        <Param name="startVal" val="1" valType="code" updates="None"/>\u000a        <Param name="font" val="Arial" valType="str" updates="constant"/>\u000a        <Param name="letterHeight" val="0.1" valType="code" updates="constant"/>\u000a      </TextComponent>\u000a      <TextComponent name="orLeftBox_inst">\u000a        <Param name="opacity" val="1" valType="code" updates="constant"/>\u000a        <Param name="colorSpace" val="rgb" valType="str" updates="constant"/>\u000a        <Param name="name" val="orLeftBox_inst" valType="code" updates="None"/>\u000a        <Param name="wrapWidth" val="" valType="code" updates="constant"/>\u000a        <Param name="color" val="$colourA" valType="str" updates="set every repeat"/>\u000a        <Param name="text" val="$orStimulusLeft" valType="str" updates="set every repeat"/>\u000a        <Param name="stopVal" val="" valType="code" updates="constant"/>\u000a        <Param name="durationEstim" val="" valType="code" updates="None"/>\u000a        <Param name="pos" val="[-.6, .7]" valType="code" updates="constant"/>\u000a        <Param name="flip" val="" valType="str" updates="constant"/>\u000a        <Param name="startEstim" val="" valType="code" updates="None"/>\u000a        <Param name="units" val="from exp settings" valType="str" updates="None"/>\u000a        <Param name="startType" val="time (s)" valType="str" updates="None"/>\u000a        <Param name="ori" val="0" valType="code" updates="constant"/>\u000a        <Param name="stopType" val="duration (s)" valType="str" updates="None"/>\u000a        <Param name="startVal" val="1" valType="code" updates="None"/>\u000a        <Param name="font" val="Arial" valType="str" updates="constant"/>\u000a        <Param name="letterHeight" val="0.1" valType="code" updates="constant"/>\u000a      </TextComponent>\u000a      <TextComponent name="orRightBox_inst">\u000a        <Param name="opacity" val="1" valType="code" updates="constant"/>\u000a        <Param name="colorSpace" val="rgb" valType="str" updates="constant"/>\u000a        <Param name="name" val="orRightBox_inst" valType="code" updates="None"/>\u000a        <Param name="wrapWidth" val="" valType="code" updates="constant"/>\u000a        <Param name="color" val="$colourA" valType="str" updates="set every repeat"/>\u000a        <Param name="text" val="$orStimulusRight" valType="str" updates="set every repeat"/>\u000a        <Param name="stopVal" val="" valType="code" updates="constant"/>\u000a        <Param name="durationEstim" val="" valType="code" updates="None"/>\u000a        <Param name="pos" val="[.6, .7]" valType="code" updates="constant"/>\u000a        <Param name="flip" val="" valType="str" updates="constant"/>\u000a        <Param name="startEstim" val="" valType="code" updates="None"/>\u000a        <Param name="units" val="from exp settings" valType="str" updates="None"/>\u000a        <Param name="startType" val="time (s)" valType="str" updates="None"/>\u000a        <Param name="ori" val="0" valType="code" updates="constant"/>\u000a        <Param name="stopType" val="duration (s)" valType="str" updates="None"/>\u000a        <Param name="startVal" val="1" valType="code" updates="None"/>\u000a        <Param name="font" val="Arial" valType="str" updates="constant"/>\u000a        <Param name="letterHeight" val="0.1" valType="code" updates="constant"/>\u000a      </TextComponent>\u000a    </Routine>\u000a  </Routines>\u000a  <Flow>\u000a    <LoopInitiator loopType="TrialHandler" name="blocks">\u000a      <Param name="conditionsFile" val="$taskFile" valType="str" updates="None"/>\u000a      <Param name="name" val="blocks" valType="code" updates="None"/>\u000a      <Param name="isTrials" val="False" valType="bool" updates="None"/>\u000a      <Param name="random seed" val="" valType="code" updates="None"/>\u000a      <Param name="loopType" val="sequential" valType="str" updates="None"/>\u000a      <Param name="nReps" val="1" valType="code" updates="None"/>\u000a      <Param name="endPoints" val="[0, 1]" valType="num" updates="None"/>\u000a      <Param name="conditions" val="None" valType="str" updates="None"/>\u000a      <Param name="Selected rows" val="" valType="str" updates="None"/>\u000a    </LoopInitiator>\u000a    <Routine name="instructions"/>\u000a    <LoopInitiator loopType="TrialHandler" name="trials">\u000a      <Param name="conditionsFile" val="$block" valType="str" updates="None"/>\u000a      <Param name="name" val="trials" valType="code" updates="None"/>\u000a      <Param name="isTrials" val="True" valType="bool" updates="None"/>\u000a      <Param name="random seed" val="" valType="code" updates="None"/>\u000a      <Param name="loopType" val="random" valType="str" updates="None"/>\u000a      <Param name="nReps" val="$nBlockRepeats" valType="code" updates="None"/>\u000a      <Param name="endPoints" val="[0, 1]" valType="num" updates="None"/>\u000a      <Param name="conditions" val="None" valType="str" updates="None"/>\u000a      <Param name="Selected rows" val="" valType="str" updates="None"/>\u000a    </LoopInitiator>\u000a    <Routine name="trial"/>\u000a    <LoopTerminator name="trials"/>\u000a    <LoopTerminator name="blocks"/>\u000a    <Routine name="end"/>\u000a  </Flow>\u000a</PsychoPy2experiment>\u000a
p810
sg42
(lp811
sg67
I206592848
sg11
g86
sg6
g7
sg69
I2
sg21
I01
sg22
g23
sg70
g1
(g71
g44
(dp812
g16
g74
(g75
g76
g77
S'b'
tRp813
(I1
(I10
I2
tg79
I00
S'\x00\x00\x80?\x00\x00\x80?\x00\x00\x80?\x00\x00\x80?\x00\x00\x80?\x00\x00\x80?\x00\x00\x80?\x00\x00\x80?\x00\x00\x80?\x00\x00\x80?\x00\x00\x80?\x00\x00\x80?\x00\x00\x80?\x00\x00\x80?\x00\x00\x80?\x00\x00\x80?\x00\x00\x80?\x00\x00\x80?\x00\x00\x80?\x00\x00\x80?'
S'\x00\x00\x00\x00\x00\x00\x00\x00\x00\x00\x00\x00\x00\x00\x00\x00\x00\x00\x00\x00'
Ntbsg18
g94
(g76
(I0
tS'b'
tRp814
(I1
(I10
I2
tg136
I00
(lp815
S'e'
aS'e'
aNaNaS'e'
aS'e'
aNaS'e'
aNaNaNaNaS'i'
aNaS'i'
aNaNaNaNaS'i'
atbsg73
g74
(g75
g76
g77
S'b'
tRp816
(I1
(I10
I2
tg79
I00
S'\x00\x00\x80?\x00\x00\x80?\x00\x00\x80?\x00\x00\x80?\x00\x00\x80?\x00\x00\x80?\x00\x00\x80?\x00\x00\x80?\x00\x00\x80?\x00\x00\x80?\x00\x00\x80?\x00\x00\x80?\x00\x00\x80?\x00\x00\x80?\x00\x00\x80?\x00\x00\x80?\x00\x00\x80?\x00\x00\x80?\x00\x00\x80?\x00\x00\x80?'
S'\x00\x00\x00\x00\x00\x00\x00\x00\x00\x00\x00\x00\x00\x00\x00\x00\x00\x00\x00\x00'
Ntbsg20
g74
(g75
g76
g77
S'b'
tRp817
(I1
(I10
I2
tg79
I00
S'\x80\xbb\xec=\xa0\xcf\xab=\x00\x00\x00\x00\x00\x00\x00\x00p\x9f\xde>\xc0\n\xf3=\x00\x00\x00\x00@A\x0c=\x00\x00\x00\x00\x00\x00\x00\x00\x00\x00\x00\x00\x00\x00\x00\x00\x80\xb6O=\x00\x00\x00\x00\xb8V\xa2>\x00\x00\x00\x00\x00\x00\x00\x00\x00\x00\x00\x00\x00\x00\x00\x00@\xf1\x08='
S'\x00\x00\x01\x01\x00\x00\x01\x00\x01\x01\x01\x01\x00\x01\x00\x01\x01\x01\x01\x00'
Ntbsg17
g74
(g75
g76
g77
S'b'
tRp818
(I1
(I10
I2
tg79
I00
S' j;>\xb0:\x1b>\x80\xe5\x0f=\x80\xae\x89<]m\x14@`\x9d\x1c> \x93\x8c=\x00\xd9\xcb=|yQ?\xc0%\xaa=\xe00\xf1=@"\t=\x90\xbe+>\xc0\xb2\xee=\xb4\xb5\xaa?\xe0\xec\xef=\x00\x98\x98<\x004\x91<\xc0>\t=\x90\xdf+>'
S'\x00\x00\x00\x00\x00\x00\x00\x00\x00\x00\x00\x00\x00\x00\x00\x00\x00\x00\x00\x00'
Ntbsg19
g74
(g75
g76
g77
S'b'
tRp819
(I1
(I10
I2
tg79
I00
S'\x00\x00\x80?\x00\x00\x80?\x00\x00\x00\x00\x00\x00\x00\x00\x00\x00\x80?\x00\x00\x80?\x00\x00\x00\x00\x00\x00\x80?\x00\x00\x00\x00\x00\x00\x00\x00\x00\x00\x00\x00\x00\x00\x00\x00\x00\x00\x80?\x00\x00\x00\x00\x00\x00\x80?\x00\x00\x00\x00\x00\x00\x00\x00\x00\x00\x00\x00\x00\x00\x00\x00\x00\x00\x80?'
S'\x00\x00\x00\x00\x00\x00\x00\x00\x00\x00\x00\x00\x00\x00\x00\x00\x00\x00\x00\x00'
Ntbsg80
g74
(g75
g76
g77
S'b'
tRp820
(I1
(I10
I2
tg79
I00
S'\x00\x00\xc0@\x00\x00pA\x00\x00\xa0@\x00\x00\x98A\x00\x00\x80@\x00\x00\x80A\x00\x00\x00@\x00\x00 A\x00\x00\x00\x00\x00\x00`A\x00\x00\xe0@\x00\x00@A\x00\x00@@\x00\x000A\x00\x00\x80?\x00\x00\x88A\x00\x00\x00A\x00\x00PA\x00\x00\x10A\x00\x00\x90A'
S'\x00\x00\x00\x00\x00\x00\x00\x00\x00\x00\x00\x00\x00\x00\x00\x00\x00\x00\x00\x00'
Ntbsg15
g94
(g76
(I0
tS'b'
tRp821
(I1
(I10
I2
tg136
I00
(lp822
S'i'
aS'i'
aS'i'
aS'i'
aS'i'
aS'i'
aS'i'
aS'i'
aS'i'
aS'i'
aS'e'
aS'e'
aS'e'
aS'e'
aS'e'
aS'e'
aS'e'
aS'e'
aS'e'
aS'e'
atbstRp823
(dp824
g84
(dp825
g16
I01
sg73
I01
sg20
I01
sg18
I00
sg17
I01
sg19
I01
sg80
I01
sg15
I00
ssg86
g808
sg87
(lp826
g73
ag80
ag15
ag16
ag17
ag18
ag19
ag20
asg89
(lp827
I10
aI2
asbsg91
g240
sg93
g94
(g76
(I0
tS'b'
tRp828
(I1
(I10
I2
tg96
I01
S'\x04\x00\x00\x00\x07\x00\x00\x00\x03\x00\x00\x00\x06\x00\x00\x00\x02\x00\x00\x00\x01\x00\x00\x00\x00\x00\x00\x00\x05\x00\x00\x00\x08\x00\x00\x00\t\x00\x00\x00\x03\x00\x00\x00\x06\x00\x00\x00\x05\x00\x00\x00\x08\x00\x00\x00\x04\x00\x00\x00\x00\x00\x00\x00\x02\x00\x00\x00\x07\x00\x00\x00\t\x00\x00\x00\x01\x00\x00\x00'
tbsg97
I01
sg98
I2
sg99
I-1
sg100
(lp829
g1
(g43
g44
(dp830
g333
g351
sg334
g421
sg335
Ve
sg336
Ve
sg337
I3
sg338
Vi
sg339
Vi
sg340
g344
stRp831
ag1
(g43
g44
(dp832
g333
g351
sg334
g410
sg335
Ve
sg336
Ve
sg337
I3
sg338
Vi
sg339
Vi
sg340
g344
stRp833
ag1
(g43
g44
(dp834
g333
g351
sg334
g399
sg335
Ve
sg336
Ve
sg337
I3
sg338
Vi
sg339
Vi
sg340
g344
stRp835
ag1
(g43
g44
(dp836
g333
g351
sg334
g377
sg335
Ve
sg336
Ve
sg337
I3
sg338
Vi
sg339
Vi
sg340
g344
stRp837
ag1
(g43
g44
(dp838
g333
g351
sg334
g355
sg335
Ve
sg336
Ve
sg337
I3
sg338
Vi
sg339
Vi
sg340
g344
stRp839
ag1
(g43
g44
(dp840
g333
g351
sg334
g432
sg335
Vi
sg336
Vi
sg337
I4
sg338
Ve
sg339
Ve
sg340
g344
stRp841
ag1
(g43
g44
(dp842
g333
g351
sg334
g388
sg335
Vi
sg336
Vi
sg337
I4
sg338
Ve
sg339
Ve
sg340
g344
stRp843
ag1
(g43
g44
(dp844
g333
g351
sg334
g366
sg335
Vi
sg336
Vi
sg337
I4
sg338
Ve
sg339
Ve
sg340
g344
stRp845
ag1
(g43
g44
(dp846
g333
g351
sg334
g443
sg335
Vi
sg336
Vi
sg337
I4
sg338
Ve
sg339
Ve
sg340
g344
stRp847
ag1
(g43
g44
(dp848
g333
g351
sg334
g454
sg335
Vi
sg336
Vi
sg337
I4
sg338
Ve
sg339
Ve
sg340
g344
stRp849
asg110
Nsg111
g552
sg113
I20
sg114
I0
sg115
I20
sg116
I01
sbag117
asS'savePickle'
p850
I00
sb.